(dp0
S'x3_old_coeffs'
p1
cnumpy.core.multiarray
_reconstruct
p2
(cnumpy
ndarray
p3
(I0
tp4
S'b'
p5
tp6
Rp7
(I1
(I160
I4
tp8
cnumpy
dtype
p9
(S'O8'
p10
I0
I1
tp11
Rp12
(I3
S'|'
p13
NNNI-1
I-1
I63
tp14
bI00
(lp15
F-35.66009345928588
aF-0.18465571930251198
aF4.43898313768095e-05
aF3.141592653589793
aF-15.564960338623836
aF-3.527789481110564
aF-0.11596952268153193
aF3.1403254532330536
aF1.7296632890130135
aF-4.987004512856549
aF-0.38205683499300447
aF3.1327812938409627
aF14.813601625686394
aF-4.824848579511581
aF-0.6886772441295086
aF3.116024681287397
aF24.4793356503913
aF-3.4360734271034814
aF-0.9468310568362295
aF3.090243826462345
aF28.203430342612933
aF-1.1411357098792978
aF-1.0898688423669407
aF3.0580468655182163
aF29.22331848107322
aF1.502935884740666
aF-1.0785625869025235
aF3.0237347742414435
aF23.087609918387127
aF4.242621992341283
aF-0.899013903243712
aF2.9923892291304997
aF17.05994028637842
aF6.407085422190075
aF-0.5662105465396079
aF2.9691428081329336
aF8.122461977345361
aF8.00645482403805
aF-0.11578741384497816
aF2.958226275971676
aF2.3702845897376403
aF8.76793563441418
aF0.40841228798165463
aF2.9626746006960807
aF-5.096551623060801
aF8.990149814702084
aF0.9633524582665355
aF2.984072257183636
aF-11.587719132731493
aF8.512348100040132
aF1.5103055181022311
aF3.02280093027056
aF-18.201138668744857
aF7.425999431346557
aF2.008378878458064
aF3.0779571885287766
aF-23.04327253412303
aF5.719642681151726
aF2.419180194473637
aF3.1474155263789783
aF-25.178885302063577
aF3.559335881077691
aF2.709148274543305
aF3.227897271142276
aF-24.712226015236002
aF1.198815384009231
aF2.8578405015772725
aF3.3152656700688126
aF-22.15051954286481
aF-1.1179558049191467
aF2.8603673634238365
aF3.4049897466034866
aF-18.963369156594652
aF-3.1945670120627234
aF2.725601025393151
aF3.4926084927840813
aF-15.394449797420593
aF-4.972382870493471
aF2.47038384156327
aF3.5740851143801504
aF-12.03904433991913
aF-6.41561253900165
aF2.114508985016551
aF3.645958965457652
aF-8.787266217788686
aF-7.544272945869068
aF1.6782625636143382
aF3.705404722143107
aF-5.896741404480721
aF-8.368079153786754
aF1.181001560500094
aF3.7502148071240486
aF-2.9156052215681543
aF-8.920898660456821
aF0.6407210038049843
aF3.7787691993245627
aF0.16085959467049854
aF-9.194236649978835
aF0.07462302535386972
aF3.7899909383852335
aF4.005203911716415
aF-9.179156062978477
aF-0.4995454969260478
aF3.7833490702442956
aF8.664092737708474
aF-8.803668196255062
aF-1.0615087550270954
aF3.758896482995887
aF14.199560466887315
aF-7.991409502094893
aF-1.5863549331005327
aF3.717391409305388
aF18.472089192160638
aF-6.66020070832421
aF-2.04421775217613
aF3.660447042999997
aF20.508594085858956
aF-4.928442346559153
aF-2.406362847641234
aF3.590624859415326
aF19.53217514660484
aF-3.005761651009876
aF-2.654306722565267
aF3.5112389610697248
aF18.153043609871442
aF-1.174620231015672
aF-2.784943656378564
aF3.4259526365582325
aF16.456645865173247
aF0.5272276074097758
aF-2.8051746758662506
aF3.3383300441536203
aF15.45407600026004
aF2.070038157269768
aF-2.7240101207200147
aF3.251685423219026
aF13.63640589004452
aF3.5188577822941483
aF-2.5493571226086407
aF3.169053249556174
aF11.234923570961183
aF4.797270834485824
aF-2.2894781033342673
aF3.093238374109769
aF7.9767758884972695
aF5.850544919263434
aF-1.956733861029602
aF3.0267198808376805
aF3.1986051412632897
aF6.598367658810053
aF-1.5677053429648053
aF2.9715288023345874
aF-1.4853522986642356
aF6.898236890803485
aF-1.1459364507893797
aF2.9290793424660366
aF-8.538490024549736
aF6.758985112803714
aF-0.7191482631766575
aF2.899960058487724
aF-14.52554784368627
aF5.958501673002177
aF-0.32172680112022256
aF2.883826672626281
aF-21.419488519823176
aF4.59673156265659
aF0.00812423749411495
aF2.8791482748401878
aF-26.399026496508295
aF2.5886545139231663
aF0.2326675523872353
aF2.883237482014235
aF-32.62070232206609
aF0.11374577987551382
aF0.317117561568446
aF2.8922306915965583
aF-38.43203505631735
aF-2.944445062818182
aF0.22865820897648553
aF2.901256190427126
aF-39.17254554827933
aF-6.547448349347938
aF-0.06796346015370863
aF2.904353472193646
aF-34.93496244605295
aF-10.219874494499123
aF-0.5919422990239259
aF2.8946401703160594
aF-18.211170375948004
aF-13.495027223816585
aF-1.3330329777212953
aF2.865095496839788
aF0.2960820609938666
aF-15.202324446561713
aF-2.229825217420618
aF2.809703717948043
aF23.955994900287486
aF-15.174566753343537
aF-3.1791030674176524
aF2.725184695643731
aF40.27213847240774
aF-12.92869223144159
aF-4.05732991069219
aF2.611749890887802
aF51.59269959285809
aF-9.15317924965336
aF-4.74738839447641
aF2.4735616633034936
aF52.07714526137454
aF-4.316363662822918
aF-5.168311610491292
aF2.317841608605619
aF44.28690720299875
aF0.5658687054309449
aF-5.285514577909793
aF2.153705940237331
aF30.74051686775052
aF4.7177662557120765
aF-5.120400985374077
aF1.9904377449857753
aF15.632273353940178
aF7.599689712063686
aF-4.735480486381082
aF1.8359705339270462
aF2.5531410533106915
aF9.065215338995577
aF-4.214702203535482
aF1.695885399835424
aF-7.18582248971754
aF9.304572312743456
aF-3.640646339418634
aF1.5731066210109925
aF-13.327019319064963
aF8.630901454332442
aF-3.0801627841975114
aF1.4682036254041
aF-16.603807178913495
aF7.381493393170102
aF-2.5797754452130595
aF1.3799704447461782
aF-17.50043579517011
aF5.824886470146958
aF-2.167076074484404
aF1.3060542437422846
aF-17.268831435349956
aF4.184220614349761
aF-1.854291478093879
aF1.2434874111915477
aF-15.468896291125116
aF2.5652676672857053
aF-1.6433699692927681
aF1.189099952532355
aF-13.999262193331509
aF1.1150586399927245
aF-1.5283597721903206
aF1.1397777119472212
aF-10.788289374005606
aF-0.1973721906321065
aF-1.4996820706478022
aF1.092678169941712
aF-8.95005886202989
aF-1.2087743194451315
aF-1.5436241490877176
aF1.045291126490249
aF-6.300150080052993
aF-2.0478423377604322
aF-1.6453934196253925
aF0.9955992940393807
aF-4.276330623224275
aF-2.638481407765403
aF-1.7918410366730786
aF0.9419886383208482
aF-1.8888146504138112
aF-3.039387403692677
aF-1.9692744370311406
aF0.8832864606711601
aF0.6813997189248191
aF-3.216463777168972
aF-2.1647697864330677
aF0.8187208407038589
aF3.136083783196358
aF-3.1525825535197702
aF-2.3638024842670897
aF0.7479515016395903
aF5.932908995144607
aF-2.8585746988451115
aF-2.5516511484034936
aF0.6710996857881883
aF7.870640129344894
aF-2.3023644805503056
aF-2.7129304977596016
aF0.5887500685600031
aF9.966143956996566
aF-1.5644919684242198
aF-2.8337697617900544
aF0.5019627805670224
aF11.06292849420468
aF-0.6301659724557929
aF-2.902352822442558
aF0.4121837938999766
aF11.553194299084804
aF0.4069835738758951
aF-2.909327272398177
aF0.32120748552578604
aF10.819204406216448
aF1.4900955394150952
aF-2.850043550107833
aF0.23104102866932097
aF9.40544794921029
aF2.5043959524978883
aF-2.725215690985552
aF0.14376251506937843
aF7.0433205810817086
aF3.3861566977363515
aF-2.541135920665737
aF0.06133225539103071
aF4.712468136667396
aF4.0464680022127615
aF-2.3088663987923237
aF-0.014556503393539089
aF1.8291885713161213
aF4.488261890025329
aF-2.042156089659888
aF-0.0826131363328706
aF-0.02772082296997353
aF4.6597483185862165
aF-1.7562807706407715
aF-0.1419916234776344
aF-1.7620587378874684
aF4.657149491432782
aF-1.4651277140776768
aF-0.19232570806516724
aF-2.740695812541065
aF4.491956484755832
aF-1.1792181523217802
aF-0.2336167253450605
aF-3.6097190832891033
aF4.23501625233011
aF-0.9065002542878452
aF-0.2661642557490458
aF-4.125298565568955
aF3.896605088271757
aF-0.6523870873940362
aF-0.2904667905207585
aF-4.652265497568124
aF3.5098583477496668
aF-0.4209351050183674
aF-0.30717450271657354
aF-4.996217443596915
aF3.073708457352656
aF-0.21519864235891784
aF-0.31704310458144125
aF-5.447243298338059
aF2.6053130720154423
aF-0.037729219566164596
aF-0.320918866195945
aF-5.636243784194125
aF2.094634012796249
aF0.1091441268342026
aF-0.31971988993342526
aF-5.742837572930882
aF1.5662361580280517
aF0.2235463196724612
aF-0.3144355994517549
aF-5.637734750266935
aF1.0278451355657794
aF0.3046113600972662
aF-0.30609550695820253
aF-5.251179396476348
aF0.4993075027282538
aF0.35233488004395475
aF-0.2957446969506572
aF-4.760698442098069
aF0.007009434308596629
aF0.3681572843263574
aF-0.2844068802436208
aF-3.6880596257228855
aF-0.43930604463809514
aF0.35464801525356127
aF-0.27304040494436954
aF-2.7067887638890014
aF-0.7850616345496175
aF0.31638652527894806
aF-0.262499214924671
aF-0.9146277780017165
aF-1.0388230811642087
aF0.25939012791288796
aF-0.2534614023997599
aF0.15792883340766842
aF-1.1245694353518707
aF0.19178411177176824
aF-0.24639784879235083
aF1.3964932543483721
aF-1.1097636072198984
aF0.12196120419140155
aF-0.2414979880331798
aF2.118586718592579
aF-0.9788423646247401
aF0.05669226757126067
aF-0.23872783633288286
aF2.7834277916350083
aF-0.7802248597566864
aF0.0017214168093391269
aF-0.23784744958228843
aF3.178529228771423
aF-0.5192785042909043
aF-0.03888806331715067
aF-0.23847065017151658
aF3.3807361693259383
aF-0.2212913890935826
aF-0.06203087248541117
aF-0.24009600905046335
aF3.450092039421154
aF0.09565262678072489
aF-0.06595708380768606
aF-0.2421474068076268
aF3.272316291936787
aF0.4190987554764559
aF-0.04987110311214993
aF-0.24400986645492018
aF3.110100717230905
aF0.7258784078455284
aF-0.014090566758337641
aF-0.24505919913069363
aF2.7943361240738107
aF1.0174503500859258
aF0.0403884569270212
aF-0.24469575096760687
aF2.484038049860105
aF1.2794193617178469
aF0.1121656354208882
aF-0.24235473146016062
aF1.9988599505418547
aF1.512297928892234
aF0.19940680075244777
aF-0.23752431555757836
aF1.5301718309843022
aF1.699691049255533
aF0.2997814563195669
aF-0.2297549992231811
aF0.7481859514917811
aF1.8431446584103113
aF0.41049507218412273
aF-0.218680277034504
aF0.057989910017596326
aF1.9132870913626654
aF0.5278835643645271
aF-0.20402952725004764
aF-1.0990648619677788
aF1.918723645426816
aF0.6476338998891984
aF-0.18566295172688796
aF-1.8487113188312476
aF1.815686314617336
aF0.7643342111405763
aF-0.16358417959315408
aF-2.7158965754526676
aF1.6423696284769067
aF0.8723984593622721
aF-0.13798202252049196
aF-3.288574191331421
aF1.3877543245282173
aF0.9670898328936833
aF-0.10919857666103039
aF-3.8277151009471577
aF1.0794504940908975
aF1.0441899834755324
aF-0.07772214987036419
aF-4.169378778191896
aF0.7206022033770997
aF1.1004416302714088
aF-0.04415387460824749
aF-4.379158809188908
aF0.3297229429216112
aF1.1332642910932438
aF-0.009188599915625595
aF-4.423146399634577
aF-0.08082319543984803
aF1.1410424082020514
aF0.026414262921397036
aF-4.307832345272531
aF-0.49549317040559093
aF1.1230325217693802
aF0.06185792556011549
aF-4.069294390199164
aF-0.899352452774891
aF1.0794435960449948
aF0.09633734720603915
aF-3.694879307478797
aF-1.280848801856063
aF1.011312306837778
aF0.12906750069330974
aF-3.2553321135351507
aF-1.6272437369322004
aF0.9204344150006415
aF0.1593074226060034
aF-2.6726492239870905
aF-1.9324311225761193
aF0.8091945756410076
aF0.186382548010827
aF-2.118130947936545
aF-2.1829919873249093
aF0.6805876034566016
aF0.20970117594997473
aF-1.3030534329927321
aF-2.381566763693961
aF0.5379451424872612
aF0.22877307021868676
aF-0.6362820661035508
aF-2.50372802303703
aF0.3852796804019142
aF0.24321834109380402
aF0.4487002381872988
aF-2.5633794667342364
aF0.22693257134656086
aF0.25279386642121027
aF1.0774986657563768
aF-2.521313819404179
aF0.06803590615473754
aF0.2573959022598735
aF1.829840094563973
aF-2.4202983194895165
aF-0.08638947318569024
aF0.25709268645016614
aF2.3034006996047602
aF-2.248750810624144
aF-0.23229725850174354
aF0.25208528512352824
aF2.8108174338692535
aF-2.0328069950361987
aF-0.3660959399286273
aF0.24270024429265535
aF3.186047266709028
aF-1.7692928606109555
aF-0.48491156041760153
aF0.22936036242942948
aF3.538722570112224
aF-1.470600929356986
aF-0.5861582413540981
aF0.2125762815535598
aF3.7869402096917515
aF-1.1388456884089655
aF-0.6677034481592861
aF0.19293069603366808
aF3.977528268998573
aF-0.7838200437503642
aF-0.7277867522892676
aF0.1710683775298123
aF4.026176769022845
aF-0.41092676853174825
aF-0.765122590173084
aF0.14768097678898906
aF3.9440455676204214
aF-0.03347269643585504
aF-0.7790100734533145
aF0.12349246933778202
aF3.7328905578874774
aF0.3362815755285592
aF-0.7695472959816708
aF0.09923607908099119
aF3.319607984227404
aF0.6862400653305103
aF-0.7375934947048278
aF0.07563004483689362
aF2.8544902238909797
aF0.9974533138518309
aF-0.6849780766053802
aF0.05335171083717294
aF2.0532648403238296
aF1.2650617723416104
aF-0.6142744801618286
aF0.033007333573478514
aF1.3395018046522054
aF1.4575553511219697
aF-0.5291926950535939
aF0.01510932862564529
aF0.16622343137875822
aF1.5831336453081126
aF-0.43417116391515265
aF3.632915377516088e-05
aF-0.5382799287974047
aF1.598717091999872
aF-0.33473832837428164
aF-0.011980418031524609
aF-1.3349967358039325
aF1.5482533486751149
aF-0.23639550210318883
aF-0.02089617063284599
aF-1.798038865840577
aF1.4230974046934948
aF-0.14354079106041961
aF-0.026812304779937568
aF-2.2468008496078307
aF1.254531261020942
aF-0.05986489525685035
aF-0.029963082732867907
aF-2.496325338176428
aF1.043893681370208
aF0.01196088419287622
aF-0.030677299445511785
aF-2.6909607769355315
aF0.8098631809161685
aF0.06989078613931032
aF-0.029360276194804247
aF-2.7170076215489076
aF0.5575856080784626
aF0.1126235607953956
aF-0.0264674287210801
aF-2.6834389718512344
aF0.3028661435582548
aF0.139512678034049
aF-0.022486341743192084
aF-2.4237054520830754
aF0.05129373994720107
aF0.15058017439359395
aF-0.017912694894776038
aF-2.021244477639482
aF-0.17592864618558657
aF0.14668533357364644
aF-0.013230938522545144
aF-1.3956838224963428
aF-0.36542031596428876
aF0.12976817850645816
aF-0.008880510653165974
aF-0.5731491178279468
aF-0.4962656743233203
aF0.10284049130997852
aF-0.005224703742238296
aF0.4846543487719932
aF-0.5499984041196911
aF0.07014473885863315
aF-0.002513063959362405
aF1.805573899699541
aF-0.5045620589223156
aF0.03718972438857171
aF-0.0008433582096014219
aF3.415532508570204
aF-0.33528950582548367
aF0.010944362990203071
aF-0.00011881396558004187
atp16
bs.