(dp0
S'lambda_x_start'
p1
I4
sS'xb'
p2
(dp3
csympy.core.symbol
Symbol
p4
(S'x_2'
p5
tp6
Rp7
(dp8
S'_assumptions'
p9
ccopy_reg
_reconstructor
p10
(csympy.core.assumptions
StdFactKB
p11
c__builtin__
dict
p12
(dp13
S'type'
p14
c__builtin__
float
p15
sS'commutative'
p16
I01
stp17
Rp18
sbF0.0
sg4
(S'x_3'
p19
tp20
Rp21
(dp22
g9
g10
(g11
g12
(dp23
g14
g15
sg16
I01
stp24
Rp25
sbF0.0
sg4
(S'x_1'
p26
tp27
Rp28
(dp29
g9
g10
(g11
g12
(dp30
g14
g15
sg16
I01
stp31
Rp32
sbF0.5
sg4
(S'x_4'
p33
tp34
Rp35
(dp36
g9
g10
(g11
g12
(dp37
g14
g15
sg16
I01
stp38
Rp39
sbF0.0
ssS'xa'
p40
(dp41
g7
F0.0
sg21
F0.0
sg28
F0.0
sg35
F0.0
ssS'x_sym'
p42
(lp43
g28
ag7
ag21
ag35
asS'lambda_u'
p44
I3
sS'lambda_x'
p45
F108.0
sS'v_max'
p46
I4
sS'u_sym'
p47
(lp48
g4
(S'u'
p49
tp50
Rp51
(dp52
g9
g10
(g11
g12
(dp53
g16
I01
stp54
Rp55
sbasS'tol'
p56
F1e-05
sS'A'
p57
(lp58
cnumpy.core.multiarray
_reconstruct
p59
(cnumpy
ndarray
p60
(I0
tp61
S'b'
p62
tp63
Rp64
(I1
(I101
tp65
cnumpy
dtype
p66
(S'f8'
p67
I0
I1
tp68
Rp69
(I3
S'<'
p70
NNNI-1
I-1
I0
tp71
bI00
S'\x00\x00\x00\x00\x00\x00\x00\x00{\x14\xaeG\xe1z\x84?{\x14\xaeG\xe1z\x94?\xb8\x1e\x85\xebQ\xb8\x9e?{\x14\xaeG\xe1z\xa4?\x9a\x99\x99\x99\x99\x99\xa9?\xb8\x1e\x85\xebQ\xb8\xae?\xecQ\xb8\x1e\x85\xeb\xb1?{\x14\xaeG\xe1z\xb4?\n\xd7\xa3p=\n\xb7?\x9a\x99\x99\x99\x99\x99\xb9?)\\\x8f\xc2\xf5(\xbc?\xb8\x1e\x85\xebQ\xb8\xbe?\xa4p=\n\xd7\xa3\xc0?\xecQ\xb8\x1e\x85\xeb\xc1?333333\xc3?{\x14\xaeG\xe1z\xc4?\xc3\xf5(\\\x8f\xc2\xc5?\n\xd7\xa3p=\n\xc7?R\xb8\x1e\x85\xebQ\xc8?\x9a\x99\x99\x99\x99\x99\xc9?\xe1z\x14\xaeG\xe1\xca?)\\\x8f\xc2\xf5(\xcc?q=\n\xd7\xa3p\xcd?\xb8\x1e\x85\xebQ\xb8\xce?\x00\x00\x00\x00\x00\x00\xd0?\xa4p=\n\xd7\xa3\xd0?H\xe1z\x14\xaeG\xd1?\xecQ\xb8\x1e\x85\xeb\xd1?\x8f\xc2\xf5(\\\x8f\xd2?333333\xd3?\xd7\xa3p=\n\xd7\xd3?{\x14\xaeG\xe1z\xd4?\x1f\x85\xebQ\xb8\x1e\xd5?\xc3\xf5(\\\x8f\xc2\xd5?ffffff\xd6?\n\xd7\xa3p=\n\xd7?\xaeG\xe1z\x14\xae\xd7?R\xb8\x1e\x85\xebQ\xd8?\xf6(\\\x8f\xc2\xf5\xd8?\x9a\x99\x99\x99\x99\x99\xd9?=\n\xd7\xa3p=\xda?\xe1z\x14\xaeG\xe1\xda?\x85\xebQ\xb8\x1e\x85\xdb?)\\\x8f\xc2\xf5(\xdc?\xcd\xcc\xcc\xcc\xcc\xcc\xdc?q=\n\xd7\xa3p\xdd?\x14\xaeG\xe1z\x14\xde?\xb8\x1e\x85\xebQ\xb8\xde?\\\x8f\xc2\xf5(\\\xdf?\x00\x00\x00\x00\x00\x00\xe0?R\xb8\x1e\x85\xebQ\xe0?\xa4p=\n\xd7\xa3\xe0?\xf6(\\\x8f\xc2\xf5\xe0?H\xe1z\x14\xaeG\xe1?\x9a\x99\x99\x99\x99\x99\xe1?\xecQ\xb8\x1e\x85\xeb\xe1?=\n\xd7\xa3p=\xe2?\x8f\xc2\xf5(\\\x8f\xe2?\xe1z\x14\xaeG\xe1\xe2?333333\xe3?\x85\xebQ\xb8\x1e\x85\xe3?\xd7\xa3p=\n\xd7\xe3?)\\\x8f\xc2\xf5(\xe4?{\x14\xaeG\xe1z\xe4?\xcd\xcc\xcc\xcc\xcc\xcc\xe4?\x1f\x85\xebQ\xb8\x1e\xe5?q=\n\xd7\xa3p\xe5?\xc3\xf5(\\\x8f\xc2\xe5?\x14\xaeG\xe1z\x14\xe6?ffffff\xe6?\xb8\x1e\x85\xebQ\xb8\xe6?\n\xd7\xa3p=\n\xe7?\\\x8f\xc2\xf5(\\\xe7?\xaeG\xe1z\x14\xae\xe7?\x00\x00\x00\x00\x00\x00\xe8?R\xb8\x1e\x85\xebQ\xe8?\xa4p=\n\xd7\xa3\xe8?\xf6(\\\x8f\xc2\xf5\xe8?H\xe1z\x14\xaeG\xe9?\x9a\x99\x99\x99\x99\x99\xe9?\xecQ\xb8\x1e\x85\xeb\xe9?=\n\xd7\xa3p=\xea?\x8f\xc2\xf5(\\\x8f\xea?\xe1z\x14\xaeG\xe1\xea?333333\xeb?\x85\xebQ\xb8\x1e\x85\xeb?\xd7\xa3p=\n\xd7\xeb?)\\\x8f\xc2\xf5(\xec?{\x14\xaeG\xe1z\xec?\xcd\xcc\xcc\xcc\xcc\xcc\xec?\x1f\x85\xebQ\xb8\x1e\xed?q=\n\xd7\xa3p\xed?\xc3\xf5(\\\x8f\xc2\xed?\x14\xaeG\xe1z\x14\xee?ffffff\xee?\xb8\x1e\x85\xebQ\xb8\xee?\n\xd7\xa3p=\n\xef?\\\x8f\xc2\xf5(\\\xef?\xaeG\xe1z\x14\xae\xef?\x00\x00\x00\x00\x00\x00\xf0?'
p72
tp73
bag59
(g60
(I0
tp74
g62
tp75
Rp76
(I1
(I101
I4
tp77
g69
I00
S'\x00\x00\x00\x00\x00\x00\x00\x00\x00\x00\x00\x00\x00\x00\x00\x00\x00\x00\x00\x00\x00\x00\x00\x00\x00\x00\x00\x00\x00\x00\x00\x00\xff\xf4\xf7\x8a\x00\x98\x05\xbf|R\x8c\xef\x17\xf5\x88\xbf\xb8&\xa9G\x8d\x98\x15\xbf\x01f3X)\xf6\x98\xbf\x84\xdd\xd2\x05_\xb64\xbf\xd6\xb5O\x15<\x97\xa7\xbf\x9f`X\xc9\x82\xb8D\xbf\xf2\x89\x87C^\x9b\xb7\xbf\xbd\x84>{^\xbfP\xbf\x90\x98$\xd5\x9d\n\xb9\xbf\xdb\x91\xbd\x05R\xc3`\xbf\xa0C\xf8\xfa\xbb\x14\xc9\xbfUz[\xab\xdb\x00c\xbfK?\n)X\xf6\xc4\xbf\xe0|\xcf\xd1\xf3\x08s\xbf\xe93\x82=\xcb\x05\xd5\xbf\xb3\xcf\xba"\xe7\xbfq\xbfH\x14\x9eC\x1a\xc8\xce\xbf\xa1\xb3#x\xe7\xcb\x81\xbf0\xdd\xaci\x84\xec\xde\xbf\xef\xcf\xfc\xc6\xf7M}\xbf\x8c\xb8!\xf31\xc8\xd4\xbf\xcf\xc4\xf2\x83\xf7j\x8d\xbf\xf0\xf7y\xc7\x9b\xec\xe4\xbf\xbf\xaf\xa5L\xb34\x86\xbf\xd2\xa0do\xccu\xda\xbf;\xa6\xf1\xbd\x1cS\x96\xbf\\S\xa5\x82\xcb\xb6\xea\xbf\xd6\xe9hZ\x13\x99\x8f\xbf5q\x85\x07*\x1f\xe0\xbf@n9.\x93\xd2\x9f\xbf\x0e\x943R\x86T\xf0\xbfl\xb3\x8b\x94\xdbj\x95\xbf\xb4\x1bb)A\xfb\xe2\xbf\x8f\xa3\n\xb7\x10\x9d\xa5\xbfr\xd9\x08\xa0qM\xf3\xbf\xe3\xfd\x17\xd1r\xef\x9b\xbf\xbf\x03\'\x07(\xbb\xe5\xbfv\x0b\x1c\x19\xccA\xac\xbf\xa4m\x81\xde\x833\xf6\xbf\x0f\xa9t\xf8&\xa7\xa1\xbf\x1d\xf5\x9bH{L\xe8\xbf\xb6\xd9\x9ebW\xe7\xb1\xbf\xbaA\xc18\xb0\xf5\xf8\xbf\xf0U\'\xe6\xe5\xba\xa5\xbf\xd8\xed;\xdex\x9e\xea\xbfb\x83J\xc5\xdb\x1a\xb6\xbf\xa6$U\xe2\x7f\x84\xfb\xbf\xa5\xbbB\xc6\x98\'\xaa\xbf\xe4}\x98\x1d\x03\xa2\xec\xbf\xc0\xa2\xa7\t\x1a\xb2\xba\xbf+\xd4\x1eT\x18\xd2\xfd\xbfN&\xce\xf6\x98\xdf\xae\xbfs\xbd\x18?\xa4I\xee\xbfx\x9d+O\xa3\xa1\xbf\xbfg>\xf8\xe7B\xd2\xff\xbf}\'\x7fM\x9d\xe9\xb1\xbf\xc2\x06\x10\x00\x93\x89\xef\xbfe\x9a\x810\x1bn\xc2\xbf\x05\xddYI<\xbd\x00\xc0\xdad\xe2\xdf\x88x\xb4\xbfG\xc2M@\xdb+\xf0\xbf\xde\xae\xd44\x83)\xc5\xbf\xfe\x9b\xfe@\xf5`\x01\xc0\xc3\x1a\xd2\xcf\x1b\x13\xb7\xbf\x80\x05\xdb\x10\xd5U\xf0\xbfv\x19C\xa6\x00\xfb\xc7\xbf\x8a\xc7\x1f\x81\xc5\xd0\x01\xc0\xcf\xbb/iH\xaf\xb9\xbf\xfa\x98\xe5\xcc_?\xf0\xbfLP<;\x0c\xda\xca\xbf9\x89\x18\xe9\x07\n\x02\xc0&}\xd2\x9f\x89B\xbc\xbf6\xa0!\xe2\xfe\xcb\xef\xbf\xe7\xed\x1d\x08\xc4\xbd\xcd\xbf\r\xd6\xd5\x8d\xf6\n\x02\xc0\xdf\xbbs:\x06\xc2\xbe\xbf\x8e\xf4\x8a\xdb$\x90\xee\xbfg\x9a\xfe\xb1\x87N\xd0\xbf\xd7\xe7\xaf\xe6\xa5\xd2\x01\xc0 \x97\xdb\xb3Y\x91\xc0\xbf\xa7\xa6u6\x9e\xc9\xec\xbf\xb99+.`\xb7\xd1\xbf\xe28\xef{\xf9`\x01\xc0\x91j\x13\x9e\xbb\xac\xc1\xbf\x02J\x99\xb5\x81x\xea\xbf\x9a\xde\x84:\xda\x14\xd3\xbfa_Xc\x97\xb6\x00\xc0-Y\xa43\xa5\xad\xc2\xbf\xd2y\xb1y\x87\x9e\xe7\xbf`\x1f\x0b"yb\xd4\xbf\xe7\xbb8\x13\xad\xa9\xff\xbf\xa5n\x14\x89\xac\x8e\xc3\xbf\xfb9\xd9[\x00?\xe4\xbf\x83\x91D\xd9\xe1\x9b\xd5\xbf\x9a0\x83\xbfY{\xfd\xbfoBl\xac\x91J\xc4\xbf\x9f\xb9}\xb1\xcb^\xe0\xbf\x92\'\xf0;\xe7\xbc\xd6\xbf\x15]\x95\xed5\xe7\xfa\xbfl\x8c\xa0rN\xdc\xc4\xbf\x0c\x81YD\x9e\x08\xd8\xbf\x83\xfe[\x8e\x94\xc1\xd7\xbf\xeaM\x8597\xf3\xf7\xbf\r\x82\x98\xdf%?\xc5\xbf\xffZ\xde\xa8\xb8\xdd\xcc\xbf\xa0\x80Tx6\xa6\xd8\xbfy\x8bG\x80%\xa6\xf4\xbf\xa8-\x9b.\xb3n\xc5\xbfL\x01W\x01"\x0c\xb0\xbf(X\x0f\x85bg\xd9\xbf\x8eE\xe7\xfd\x82\x07\xf1\xbf\xa7V\xf9\xf7\xf8f\xc5\xbfse|\x13\xf2\x94\xbc?\n\x11\x1e\xf5\xfe\x01\xda\xbfK\x0c}\xb4\x02?\xea\xbfRd\x9c\xf1o$\xc5\xbf\xaa\xcb\xdcPk\xf1\xd2?cn\xe1"Is\xda\xbf\x9a5jk\xf9\xed\xe1\xbf\x17\x81!\xea\x15\xa4\xc4\xbf\xfc\xa2{\xb5\x0fF\xdf?\x9f\t\x93\xf5\xdc\xb8\xda\xbf(R\xd3\x17,^\xd2\xbf\x81\xd3\x88\xcc|\xe3\xc3\xbfi.\xe4\x9e_\x02\xe6?\x7f\xdbO\x82\xbc\xd0\xda\xbf\xe0T\xab\x96\x0e\'g\xbf\xfa\xe1*\xee\xd9\xe0\xc2\xbfO\x8fO\xdb\x03\x86\xec?\xd1y\x90\x10Y\xb9\xda\xbf\xce3x\xfd\x1e\x86\xd2?\x03WW\xc5\x15\x9b\xc1\xbfx-F\xf4\xda\x8d\xf1?\x88\x02e|\x9eq\xda\xbfw\x9a\xf8F{\xc6\xe2?\xbfTD3\xd9\x11\xc0\xbf\xd3\x90\xde\xac/\xd8\xf4?)\xcc8\xb6\xfd\xf8\xd9\xbf\xe2}&Q\x92X\xec?\x1f\x8bj\xac\x1a\x8b\xbc\xbf\xda\xfe<\x0c\xe5\x18\xf8?\xf5\x9c0QmO\xd9\xbf\xb2\xa1\xa8\xe0\x06\xf0\xf2?\'@\xfdB\x9fn\xb8\xbf\xe06w\x02jG\xfb?\xa1\xa1\xd4Sau\xd8\xbf\xe2{\xb0zt\xa2\xf7?@\x1f^\x12\xce\xd1\xb3\xbf_\xd1\x81-\xb9[\xfe?:\xda\xc49\xc6k\xd7\xbf\xdb\xf8Rq\x0f8\xfc?\xb2\x8e\x8bv\xecr\xad\xbf\x91S\x15\x1d)\xa7\x00@-pc\x04\xfd3\xd6\xbfG\x1d\xb8h\xd0R\x00@J\x87\x8c_\x1aW\xa2\xbfb\x0c\x83\xed\x1b\x0c\x02@\x87\x1d\xb2\x00\xd8\xcf\xd4\xbfH\xc0\x08\xaf\x19p\x02@\xe3\xa0\x94@\xe0x\x89\xbf\xfd\x9f\xbd\x13wY\x03@\xab\xbe\xd8\x93\x98A\xd3\xbf\x11\x89Ei\x82n\x04@\x9c\xba\r\x87\xa3\x9e\x89?\x06\x99\x92\x8b=\x8c\x04@\xd2\xa5\xc15\xed\x8b\xd1\xbf>\xdb\x15%\xc5H\x06@\x8dS\xa4#\xa2\xe8\xa3?\xad)\xb7\x93\xb4\xa1\x05@5\xf1\x1d;\xdec\xcf\xbf\x0b\'\x8f*\xc3\xf9\x07@Ut\xdd0\x92\x08\xb1?pm\xe0\xf7e\x97\x06@f\x0f\xb9\xa3;n\xcb\xbf\xf7\xcf\xbe+\x96|\t@\xb3e\x8c\x86\x11f\xb8?\xc1A.5#k\x07@"\xaf\x91\x91\xb5>\xc7\xbf3\x8a/\xec\xa7\xcc\n@\x94/\xc30\xd1\x00\xc0?w\xae\x10O\t\x1b\x08@l\x99Eh\xc1\xdd\xc2\xbf\x05+\x0c\x14\xce\xe5\x0b@<^A\x14\xc5\xe7\xc3?\xa5\xcd\xa6\x08\x85\xa5\x08@cDh\xde\xe8\xa8\xbc\xbf\x0e\x99\xcdFh\xc4\x0c@\x1f\xf5@\x05\xcd\xe1\xc7?\xfc\x8d\x15*W\t\t@\xb6\xc9\xf4\x89\xdaX\xb3\xbf\xda\xca\xf5\n~e\r@#\xd4\x03\xe5\xa5\xe8\xcb?\x00\x87\xb7m\x98E\t@F\xb6v\xce\xc9\xbe\xa3\xbf2+P\xb3\xd9\xc6\r@\x93\xb9_\x94\xee\xf5\xcf?Dq`\x9c\xbcY\t@p\x0b\x83\x96\xb7JT\xbf\xf2H\xfa\x9e\x1d\xe7\r@\xb99"q\x9b\x01\xd2?\xf0\xe9\xf3\x98\x94E\t@\x00r\xe2\xd8\xc7y\xa2?@\xb1\xb4\x18\xd2\xc5\r@\xef_f^\x07\x05\xd4?\x12,\xe6\x17O\t\t@\xd2\xba\xe1g\xd9\xb5\xb2?\x1a\x17O\x15jc\r@\xa4\xc0\x85\x85\n\x02\xd6?\x9b\x84\xe0\xedw\xa5\x08@\x8b\xear\xe6\x11\x05\xbc?\xdf94\x95>\xc1\x0c@\xd9|U$\x83\xf5\xd7?\xa9n\t\t\xf6\x1a\x08@\xe4`\x1f\xb8<\x8b\xc2?\x8b\x8c \x02\x81\xe1\x0b@x\xa4\x80\x86e\xdc\xd9?\xb4\xb0;N\x08k\x07@\x082\x18Vh\xeb\xc6?\x1b\nq\xc9%\xc7\n@\xe3L\x90\xdc\xc2\xb3\xdb?\x18\xa2\xba\xacA\x97\x06@\xd6\xe0X\xe4\xf2\x19\xcb?\xf9\x15\xb6l\xc9u\t@\x8e\xe56\xd2\xcfx\xdd?\xec\xb6\x07\xe1\x84\xa1\x05@\xc1o\xfdAc\x0e\xcf?n\x8bf\xee\x92\xf1\x07@\xeaNX\xa8\xea(\xdf?<\xce\xd1;\x00\x8c\x04@\xeb\xe9M\x1dy`\xd1?u\xa9?\xb0\x15?\x06@(=\r\x9b\xd0`\xe0?([W\xc9)Y\x03@\x04\x9c\xc9\x93M\x15\xd3?\x80\xd9;\x825c\x04@/\xf71I[ \xe1?\x85&\xc6)\xbc\x0b\x02@\x9c\xf4\xac\xd3\x93\xa2\xd4?AxQ#\x0fc\x02@H\xad\x9a,\x14\xd2\xe1?\x9e\xeaOK\xb4\xa6\x00@U\x8e\x87\xd6\x9a\x05\xd6?\xab\xfev\xaa\xe6C\x00@K3{\xf1\x19u\xe2?\xa7\x11\xd9?\xa0Z\xfe?C3]5\x1e<\xd7?\xa4\xe9\x05\xc59\x16\xfc?\xad?\xc5\xc8\xad\x08\xe3?O(K\x9c\x1cF\xfb?]~\xbc\x08ID\xd8?\xfe\xf9]\xb2X|\xf7?("\xa4\xf85\x8c\xe3?\xddWR\xa7]\x17\xf8?\x98\xf8J\xb4\xb7\x1c\xd9?\xcaku\'\\\xc5\xf2?\xd6\xda\xea\x81@\xff\xe3?nl\xa3\ti\xd6\xf4?d\x07+\xd6z\xc4\xd9?\xbb\xb2Y\xc2\x96\xf9\xeb?YE\xf6\xd7\x85a\xe4?\x93\x82\xd0\x95\xce\x8b\xf1?\xc8t\x83m\x1b;\xda?\xf1\xf5D\x9bQ]\xe2?\x99\xa2B\xae\xeb\xb2\xe4?\x92\xc7\x9d\xabX\x81\xec?\x7f\xbc\xd6\xab\xa0\x80\xda?\r\xed\xdb\xf0\x83\x9e\xd1?sQ\x1d\xad\x87\xf3\xe4?PbZ\xcb\x17\xfd\xe5?$6}\x16\x97\x95\xda?B\xf4\xb9\xbfY\xc1\x92\xbf*S\xa0\xa0\x9f#\xe5?\xb4\xabC\x1c7:\xdf?\xd5\xef\xd9\xd4\x10{\xda?2\x9cc\xbc\xe4r\xd3\xbf%S\xfe\x1e\xa6C\xe5?\x9a\x88\xf9\xa5;\xe4\xd2?\xdeH\x04\x9d\x9a2\xda?\x0f\x9er\xb4#\x84\xe2\xbfK\x87\x83\x9f6T\xe5?\xdd\t\x1d/\xa9Z\xbc?Vaq\xdc0\xbe\xd9?\xb5\xc5&\x9dA\xe1\xea\xbf\x10\xb7\xfc\xa0\x11V\xe5?\xd1\x1d\xd3h\x18L\xb0\xbfBg\xd1x6 \xd9?\xdc\x07\xfcg\xc9^\xf1\xbf\xed1a\xeb\x18J\xe5?\xca9J\xd5\x94\x00\xcd\xbf"2(\xf7l[\xd8?\xf4$\xa4S\xa7\x03\xf5\xbfI\x86N\xd6K1\xe5?\x9e\xe8\x7f\xcf~\x1b\xd8\xbf6\x82U\x8b\xedr\xd7?v\xb6k\xe1\x02W\xf8\xbf\x18\x9e\x08\x8f\xc3\x0c\xe5?\xa5\x18\xc55\xf4h\xe0\xbf\x83\xa7e\x04"j\xd6?\xfdM\xe2\xbbRQ\xfb\xbf\xedV7\\\xaf\xdd\xe4?\x84\xfe\xdaO\xdeI\xe4\xbf\xedp5\xb3\xbdD\xd5?>j<\xe5\xc9\xeb\xfd\xbf\xb0d\t\xd5P\xa5\xe4?\x0cRm\x9d\x16\xaa\xe7\xbf\x00\x87<{\xb5\x06\xd4?\xc2\x8fb\xe77\x10\x00\xc0Y\xc8\xb7\xfe\xf7d\xe4?\xc4\xf1\xa5\'\xbc\x84\xea\xbf\x1b\xf2\xcbY6\xb4\xd2?\xfb\x95\xa6\x16 \xf5\x00\xc0\x87\xdb\xef[\xff\x1d\xe4?0\xe4\xadP}\xd6\xec\xbf\xea:Q\x05\x9bQ\xd1?Y-`\x0b\xa8\xa2\x01\xc0P\xe0\xb3\xf2\xc7\xd1\xe3?\xa5\xd5\xdea\xa1\x9d\xee\xbf\xf4\x1f\xa4\xa0\xc1\xc6\xcf?\x88z7\x03z\x17\x02\xc0\x81g\x90\x12\xb5\x81\xe3?B\xb0\x9f\xd4\x11\xda\xef\xbf\xb8 \xbd\xea1\xdc\xcc?/p\xf3\xb5\xf2R\x02\xc0\x9d\x9by$(/\xe3?\'\xa89I\xb1F\xf0\xbf\x8d\xee}\xf4\xb3\xec\xc9?\nL\xe2Z2U\x02\xc0}Q\x86`|\xdb\xe2?\xf07\xc36l]\xf0\xbf\xd0;\x94\r_\x01\xc7?\x12\xa6\xb4\\*\x1f\x02\xc0\x9a/\xf1q\x02\x88\xe2?\xf6 \xfa\x9d\xb63\xf0\xbfv\xbb^\xb6\x12#\xc4?x!\x7f\x89\xa6\xb2\x01\xc0U\xb7l\x15\xfc5\xe2?\x15_t\xdc\xd1\x99\xef\xbfg}#0SZ\xc1?\x04\xe5BqS\x12\x01\xc0\xc5\xf7\xb5\xb3\x97\xe6\xe1?\x94\xbaz\xd8mZ\xee\xbf\x8b\xe2PnI^\xbd?\x19t\xe6\xeb\xbfA\x00\xc0\\\xe2&\x01\xec\x9a\xe1?\x15\ri\xfe\\\xb3\xec\xbf\xda\xa4\xf4\x8b\xceQ\xb8?!\x07\xcfj\xb6\x8a\xfe\xbfJ\xa8\x80\xa9\xf3S\xe1?\x9b\x05\xbd\xb0k\xb0\xea\xbf\xd4\x03b\x83i\x9c\xb3?8\x13\xa8\x01\xe2D\xfc\xbf,}\x0f\xfd\x88\x12\xe1?G\xf7<~\x12_\xe8\xbf:\xb0\x13\x93\xef\x92\xae?w\xdfL\xc6G\xbe\xf9\xbfj\xa2u\xaea\xd7\xe0?R\xdc\x0c\x9cq\xce\xe5\xbf\xdbD\xda\\|\xc4\xa6?\xd7^^\xc2\xcf\x04\xf7\xbf\xbeh\xdb\x9e\n\xa3\xe0?\x1e<\xdb\xfaL\x0f\xe3\xbf~\x9f\x12,\xa1\xb6\x9f?\x1bm\xd7\xe0\xfb\'\xf4\xbfI\xefW\xb7\xe3u\xe0?g\xb7dw\t4\xe0\xbf\xa4-\x1bs\x1c\xc0\x93?\x155\x16\x02\xe28\xf1\xbf\x83\x95\x83\xa8\x1bP\xe0?\xb6i%\xacV\xa1\xda\xbf?\xccT\x8ciV\x83?\xfbX+\x18X\x94\xec\xbf\xb8W\x88\xd2\xab1\xe0?y\xbd\x964\xac\xf5\xd4\xbf\x86\xb3\xbb\x87\x10\x14W?\xd1uz\xb08\xe0\xe6\xbfU/o*T\x1a\xe0?K\xfb\x8a\xdb6\'\xcf\xbfd9\xc3\x16f\x07t\xbf\xf2\xd5\xe1\xe3.\x81\xe1\xbf\x13\xb1\xab\xf1\x96\t\xe0?>o\xb98\xe2Y\xc5\xbf\xf8\x06B\xd1\x97\xa1\x83\xbf\x1b\x02\xef\x11\xc7L\xd9\xbf\xc0\xe5\x9b(i\xfd\xdf?\x92\x1c\xce\xd4\x10\xdb\xb9\xbfi\xd3\xfe\xd4\xd4[\x8a\xbfh\xcd\xa9\t\x01\x05\xd1\xbf\xe5D$\xd8N\xf1\xdf?\x80\x8d\xa1\xb9\xdaK\xa9\xbfluy\x00\xa8\xb8\x8e\xbf\xa8\x7f\x86\x12T/\xc5\xbf9\x82\xf4\xff>\xec\xdf?\x1b"\xef\xf7\x1d\r\x90\xbf\xf2Y\n\x11#\xb1\x90\xbfi\xf3T\xf2\xd2\xe3\xb9\xbf\x14\x11\xc4|\xfc\xea\xdf?\xef\x10\xe7\xa0 \xeem\xbf\rv+\x8e\xa8\x94\x91\xbf\xe6O\t\xc0\xc1\x93\xb4\xbf'
p78
tp79
bag59
(g60
(I0
tp80
g62
tp81
Rp82
(I1
(I101
I1
tp83
g69
I00
S'\x00\x00\x00\x00\x00\x00\x00\x00 ]!?\xe6\xf4\x02\xc0@\x84\xa8c\xb0_\x11\xc0\xfc\xec\xf7\xa4F\xc4\x17\xc0\xa8T/\xbc\xc4\xbc\x1c\xc0\x8e\x93\xff\xc0\xdc. \xc0\x10\xe8\x8b\xe7\xd9]!\xc0\xd2\xdd\x14>\xa1\xf5!\xc0\xb4\xaa\xf20z\x00"\xc0\xaa\x84},\xac\x88!\xc0\x9c\xa1\r\x9d~\x98 \xc0\xf0n\xf6\xddqt\x1e\xc0\\\xf8<\x1dE\xf0\x1a\xc0<K\x9f\xd0\x05\xb9\x16\xc0\x88\xd3\xcd\xd0B\xe3\x11\xc0\x10\xfa\xf1\xec\x15\x07\t\xc0@\xceDi\xb4\xb9\xfa\xbf\x00\xc0\xb8A\x05\x1e\xbe\xbfP#\xd6\x02\x15\'\xf8? Hg\x1cx\x87\t@\xe0\x02\xc3z\xdd\xa0\x13@b9\xb3\xad\x9a\x8c\x1a@\xe5\xed)g2\xb9 @\x1b?\xfa\x81\xd6\x1e$@iZ\xf2:\xf2l\'@\xe4\t\xba%>\x99*@\x9f\x17\xf9\xd5r\x99-@\xd6\xa6\xabo\xa410@\x11;\xbej<v1@\x87-\x08\xa6]\x952@Gc]k\xe4\x893@X\xc1\x91\x04\xadN4@\xc4,y\xbb\x93\xde4@\x95\x8a\xe7\xd9t45@_VD\xd8\x9eK5@\x8f\xc1j\x8c\x8f$5@\x9f\xe6\x88)\x1d\xc34@\xd1R\x9f(,+4@[\x93\xae\x02\xa1`3@\x815\xb70`g2@\x81\xc6\xb9+NC1@:\xa7m\xd9\x9e\xf0/@*\xd4]\xd9\x90\x14-@N.EI;\xfa)@*\xd0$\x1bg\xa9&@8\xd4\xfd@\xdd)#@\xe8\xa9\xa2Y\xcd\x06\x1f@\xdc\xd9@\xa1\x98{\x17@@\xda\xb0y\\\x83\x0f@ c\xaeA\x80\xa2\xff?\x00\x00\x00\x00 q\xeb\xbd\xd0\xca\xc9A\x80\xa2\xff\xbf\xd0\x7f\xbey\\\x83\x0f\xc0\xb8\xa0G\xa1\x98{\x17\xc0,`\xa9Y\xcd\x06\x1f\xc0\xa1$\x01A\xdd)#\xc0\x7f\x13(\x1bg\xa9&\xc0&bHI;\xfa)\xc0*\xf6`\xd9\x90\x14-\xc0\x04\xb5p\xd9\x9e\xf0/\xc0\x18B\xbb+NC1\xc0\x99\xa4\xb80`g2\xc0\xc5\xf4\xaf\x02\xa1`3\xc0\\\xa5\xa0(,+4\xc0\x1e)\x8a)\x1d\xc34\xc0\xcc\xf2k\x8c\x8f$5\xc0%uE\xd8\x9eK5\xc0\xc3\x95\xe8\xd9t45\xc02#z\xbb\x93\xde4\xc0\x10\xa2\x92\x04\xadN4\xc0y-^k\xe4\x893\xc0\x97\xe0\x08\xa6]\x952\xc0\x8f\xd6\xbej<v1\xc0p*\xaco\xa410\xc0\xde\xee\xf9\xd5r\x99-\xc0@\xb1\xba%>\x99*\xc0a\xd2\xf2:\xf2l\'\xc0m\x88\xfa\x81\xd6\x1e$\xc0\xbe\t*g2\xb9 \xc0\x00\x19\xb3\xad\x9a\x8c\x1a\xc0\x0c\x8e\xc2z\xdd\xa0\x13\xc0F\xbee\x1cx\x87\t\xc00\xe3\xd1\x02\x15\'\xf8\xbf} \x0eB\x05\x1e\xbe? !Ki\xb4\xb9\xfa?\xc1\x93\xf5\xec\x15\x07\t@\xdf\xd0\xcf\xd0B\xe3\x11@\xb2p\xa1\xd0\x05\xb9\x16@\xd4<?\x1dE\xf0\x1a@\xc0\xc8\xf8\xddqt\x1e@\xf9\xd3\x0e\x9d~\x98 @\xee\xb6~,\xac\x88!@\x00\xd7\xf30z\x00"@\xea\xfd\x15>\xa1\xf5!@k\xf5\x8c\xe7\xd9]!@>\x87\x00\xc1\xdc. @@\xfa0\xbc\xc4\xbc\x1c@\x9cA\xf9\xa4F\xc4\x17@\tx\xa9c\xb0_\x11@\x05b"?\xe6\xf4\x02@\x00\x00\x00\x00\x00\x00\x00\x00'
p84
tp85
basS'H'
p86
(dp87
I1
g59
(g60
(I0
tp88
g62
tp89
Rp90
(I1
(I101
tp91
g69
I00
S"\xd1\xbc\x80\xac\xb2\xe2\x89?\x005C\xdd\xcbs\x84?\x000\xae\xec\xb4\xba]\xbf\x00`\xd4\xafy\xed\x81\xbf\x00b3\xf5\x0ed\x8b\xbf\x00\x14\xf9\xc2\xe3\x08\x90\xbf\x00\x90\x8f\xc4-\\\x90\xbf\x00|\x97\x8b\x83\xf8\x8d\xbf\x00`\xa3Hzu\x88\xbf\x00lg\x06\xb0\xd0\x80\xbf\x00\x90l3\x19\xb0n\xbf\x00 \x91\xda9\xa4R?\x00\x98,\xbb\xa2\x12y?\x00\xd4\x82\xd0V\xcav?\x00p\xfe9\xce\xc0Q?\x00p\xf8r\x9bY[\xbf\x00\xd0\xcf\xdf\xcb\xa6h\xbf\x00\xd1\x90\x97\xa0\xb3j\xbf\x00\x9e\x1d\x9d\xf0\x86f\xbf\x00X\xa1\xf1?\xb2]\xbf\x00\xa0\xaaP\x1fpI\xbf\x00\x00\xee\x16C\x1a\x04?\x00\x80\xa8\xd5\xd695?\x00\x00\xd7g\xc3\xcc+\xbf\x00\xc0f\xfe\x8eC^\xbf\x00\xe0\x08\xeas\xdas\xbf\x00\xb0|\x98}(c\xbf\x00\xc0fc\xc9\x1bB?\x00\xa0\xdd\x1a1\xf8l?\x00\xc0\xb4r\xa3\xf2y?\x00\x98\xe3\x99s\xc5\x81?\x00\xa8\xc5\xe1\x89\x17\x85?\x00`\x9d\x11\xf6J\x86?\x00\xe0)U?Q\x85?\x00\x00|!\xe5R\x7f?\x00\xc0[\xd5>\x0ek?\x00\xc0\x98x\xf7\xe0Z\xbf\x00\x10\xf6\xc6q\xec|\xbf\x00\xa0\xf2\x91\xeev{\xbf\x00\x80\x98\x02\xf4\xc5Y\xbf\x00`(\x1e\x89\xde`?\x00\x88X\x8e\xdf\xf0q?\x00\xe0TR\xb8\xd0v?\x00\xd8\xe4K\xf2\xcdw?\x00\xc8]\xa8|\xb3u?\x00\x90\x94\x97\xec`q?\x00x\xf7\xa6\xcb\xa0g?\x00\x80t\xbc\xd5_X?\x00@\t\xdb\x90U6?\x00\x80\xd6C\xb3\xbc0\xbf,\x03\xf7\xc9\x9dE\xc2\xbd\x00\x10f\xfa\xb2\xbc0?\x00\x804$\x91U6\xbf\x00\xf0\xcd\xce\xd5_X\xbf\x00\xd0#\xb0\xcb\xa0g\xbf\x00\xf8)\x9c\xec`q\xbf\x00p\xf6\xac|\xb3u\xbf\x00\x90~P\xf2\xcdw\xbf\x00\xd0\xe9V\xb8\xd0v\xbf\x00(\xed\x92\xdf\xf0q\xbf\x00\xe0M'\x89\xde`\xbf\x00\x80P\xf0\xf3\xc5Y?\x00\xc0^\x8d\xeev{?\x00`_\xc2q\xec|?\x00\x00>f\xf7\xe0Z?\x00@\x8b\xde>\x0ek\xbf\x00\x10\x14&\xe5R\x7f\xbf\x00`tW?Q\x85\xbf\x00\xc8\xe8\x13\xf6J\x86\xbf\x00\xb8\x11\xe4\x89\x17\x85\xbf\x00\xf8.\x9cs\xc5\x81\xbf\x00`Lw\xa3\xf2y\xbf\x00\x80\x0e$1\xf8l\xbf\x00@)\x88\xc9\x1bB\xbf\x00 M\x8f}(c?\x00\xe8r\xe5s\xdas?\x00\xc0\x03\xec\x8eC^?\x00\x00y\xd5\xc2\xcc+?\x00\x80\x0b\x1f\xd795\xbf\x00\x00VaE\x1a\x04\xbf\x00`\xe8+\x1fpI?\x00xI\xdf?\xb2]?\x00H\xf1\x93\xf0\x86f?\x80h`\x8e\xa0\xb3j?\x00\xf6\xa9\xd6\xcb\xa6h?\x00x\x9a`\x9bY[?\x00\xe0`L\xce\xc0Q\xbf\x00\xb8\x1c\xd5V\xcav\xbf\x00\xec\xc3\xbf\xa2\x12y\xbf\x00\x00\xee\xec9\xa4R\xbf\x00\x00>*\x19\xb0n?\x00|\x1c\x04\xb0\xd0\x80?\x00\x8cYFzu\x88?\x00HL\x89\x83\xf8\x8d?\x00\x14m\xc3-\\\x90?\x00\xdc\xc5\xc1\xe3\x08\x90?\x00\x18\xa0\xf3\x0ed\x8b?\x00\x0c\xf8\xa8y\xed\x81?\x00\xc0{\xc0\xb5\xba]?\x00\xfdc\x92\xccs\x84\xbf\x12\x1a\xd1\xce\xb1\xe2\x89\xbf"
p92
tp93
bsI3
g59
(g60
(I0
tp94
g62
tp95
Rp96
(I1
(I101
tp97
g69
I00
S"\x00!\xb1~3]\x9a?\x00\xd8\x01\x81\xbb]\x95?\x00\xe0\x8d,\xc7\x07e\xbf\x00F\xd2\x9c\xb9Y\x90\xbf\x00\xf2~8\xa8P\x99\xbf\x00\xb8\xfb[\xa7\x99\x9d\xbf\x00t+\x97/\r\x9e\xbf\x00\x0cg\xa1\x01V\x9b\xbf\x00\xack\xbb`\x17\x96\xbf\x00\xf8|`\xbc\xd7\x8d\xbf\x00\xb0\xc4\x9a\x01\xb0y\xbf\x00\xc0\x8aS#[f?\x00\x8c P\x84'\x88?\x000\xdb\xde\xdb\xd4\x85?\x000\xcd7\xba\xf0d?\x00`\x97\xb30=b\xbf\x00\xf0\xe5\x96\x95\xaaq\xbf\x00\xa0\x80W\xc6\xecq\xbf\x00\xe8\xc1\xf1;\x8fi\xbf\x00\xf4\xf3\xc9=\x7fT\xbf\x00 _\x7f\xe8YB?\x000t\x82\xdf\x1d\\?\x00`\x0b\xc0tA\\?\x00\x00\\\xcd\x19\x04,?\x00\xc0\xe3Z\xf7%i\xbf\x00\x90\xc9\xe8\x80\xf7\x80\xbf\x00\xe0;\xb6;\xcam\xbf\x00\x80\x88\x89E\xfdP?\x00\xc03\t\xbc\nv?\x00 \xcc\xd4<\xbd\x82?\x00H\xb9/'\xe4\x88?\x00(\x11\xeb\x08\x1c\x8d?\x00\xd0\xdf@\x8c\xbb\x8e?\x00\x88\xb6B\x8d\xf4\x8d?\x00 \xfb\xe0x1\x86?\x00\xd0\xcbQ\xc3Xs?\x00 AjoLb\xbf\x00@\xa4+\xe3\xe8\x84\xbf\x00H\x97\xc3\xd7\x8a\x84\xbf\x00\xe0\xcd]\xe9Ab\xbf\x00\xa0\x1f\xad\xaa\xb7o?\x00hqL\xc7\x01\x81?\x00\xf0\xb2\x97\x12\xa0\x86?\x00 \x9d\x07\x92\xc8\x88?\x00\xa0\x0c\x9c\xbb\xaa\x87?\x00\xcc3\x15\x90\xc3\x83?\x00x\xc8\x7f\xe3\xde{?\x00\xd0\x83\x88\x0e\xafm?\x00\xe0\xe1\xa2OaL?\x00 u&\x05eD\xbf\x80Jz{I\xf7\xa8=\x00P\x812\x05eD?\x00\x00\x91\x96OaL\xbf\x00\xb0}\x85\x0e\xafm\xbf\x00\xd8B~\xe3\xde{\xbf\x00\x8cn\x14\x90\xc3\x83\xbf\x00@H\x9b\xbb\xaa\x87\xbf\x00\xf0\xd6\x06\x92\xc8\x88\xbf\x00\xd8\xe4\x96\x12\xa0\x86\xbf\x00p\x9fK\xc7\x01\x81\xbf\x00\xa0\xc1\xa9\xaa\xb7o\xbf\x00\xe0<a\xe9Ab?\x00\xb0u\xc4\xd7\x8a\x84?\x00\xf8\x85,\xe3\xe8\x84?\x00\x80\xe8moLb?\x00\x80\xeaO\xc3Xs\xbf\x00 \x01\xe0x1\x86\xbf\x00\x10\xb1A\x8d\xf4\x8d\xbf\x00\x08\xd2?\x8c\xbb\x8e\xbf\x00\xb8\xf9\xe9\x08\x1c\x8d\xbf\x00\xf0\x94.'\xe4\x88\xbf\x00\x00\x9c\xd3<\xbd\x82\xbf\x00\xa0\xb9\x06\xbc\nv\xbf\x00\xc0)\x7fE\xfdP\xbf\x00 \xad\xbb;\xcam?\x00\xf08\xea\x80\xf7\x80?\x00\x10\xdc`\xf7%i?\x00\x00\xccg\x19\x04,\xbf\x00 \xd9\xb2tA\\\xbf\x00\xd0\x92t\xdf\x1d\\\xbf\x00\xa0xb\xe8YB\xbf\x00\xf0.\xd9=\x7fT?\x00\xd4\xbd\xf9;\x8fi?\x00`\xac[\xc6\xecq?\x00,P\x9b\x95\xaaq?\x00\x80\xc6\xbc0=b?\x00`2.\xba\xf0d\xbf\x00HX\xdc\xdb\xd4\x85\xbf\x00\x98|M\x84'\x88\xbf\x00@{H#[f\xbf\x00p\x8e\xa0\x01\xb0y?\x00\xf0\x85c\xbc\xd7\x8d?\x00h\x03\xbd`\x17\x96?\x00\xb0\x10\xa3\x01V\x9b?\x00\xd8\xec\x98/\r\x9e?\x00p\xc0]\xa7\x99\x9d?\x00\xbc\xc2:\xa8P\x99?\x00\x86\x8c\x9c\xb9Y\x90?\x00Pd\xaf\xc7\x07e?\x00\xa6~\xd7\xbb]\x95\xbf\x06\x82\x95\x0e3]\x9a\xbf"
p98
tp99
bssS'delta'
p100
I2
sS'a'
p101
F0.0
sg62
F1.0
sS'kappa'
p102
I3
sS'splines'
p103
(dp104
g51
(ilib.spline
CubicSpline
p105
(dp106
g101
F0.0
sg62
F1.0
sS'RBdd'
p107
NsS'h'
p108
F0.3333333333333333
sS'k'
p109
g59
(g60
(I0
tp110
g62
tp111
Rp112
(I1
(I3
I4
tp113
g66
(S'O8'
p114
I0
I1
tp115
Rp116
(I3
S'|'
p117
NNNI-1
I-1
I63
tp118
bI00
(lp119
F-3346.027655267679
aF-1267.0805163917057
aF13.209360317210955
aF21.26289395416061
aF2534.161032788821
aF1267.0805163971154
aF13.209360319014209
aF-21.26289395440966
aF-3346.0276552934133
aF-2078.947138896298
aF-257.41284718071324
aF0.0
atp120
bsS'k_sym'
p121
g59
(g60
(I0
tp122
g62
tp123
Rp124
(I1
(I4
tp125
g116
I00
(lp126
g4
(S'ku_0_0'
p127
tp128
Rp129
(dp130
g9
g10
(g11
g12
(dp131
g16
I01
stp132
Rp133
sbag4
(S'ku_1_0'
p134
tp135
Rp136
(dp137
g9
g10
(g11
g12
(dp138
g16
I01
stp139
Rp140
sbag4
(S'ku_2_0'
p141
tp142
Rp143
(dp144
g9
g10
(g11
g12
(dp145
g16
I01
stp146
Rp147
sbag4
(S'ku_0_2'
p148
tp149
Rp150
(dp151
g9
g10
(g11
g12
(dp152
g16
I01
stp153
Rp154
sbatp155
bsS'n'
p156
I3
sS'P'
p157
g10
(clib.tools
BetweenDict
p158
g12
(dp159
(I0
I1
tp160
(g10
(cnumpy.lib.polynomial
poly1d
p161
c__builtin__
object
p162
Ntp163
Rp164
(dp165
S'coeffs'
p166
g59
(g60
(I0
tp167
g62
tp168
Rp169
(I1
(I4
tp170
g116
I00
(lp171
F-3346.027655267679
aF-1267.0805163917057
aF13.209360317210955
aF21.26289395416061
atp172
bsS'variable'
p173
S'x'
p174
sS'order'
p175
I3
sbI0
tp176
s(I1
I2
tp177
(g10
(g161
g162
Ntp178
Rp179
(dp180
g166
g59
(g60
(I0
tp181
g62
tp182
Rp183
(I1
(I4
tp184
g116
I00
(lp185
F2534.161032788821
aF1267.0805163971154
aF13.209360319014209
aF-21.26289395440966
atp186
bsg173
g174
sg175
I3
sbI1
tp187
s(I2
I3
tp188
(g10
(g161
g162
Ntp189
Rp190
(dp191
g166
g59
(g60
(I0
tp192
g62
tp193
Rp194
(I1
(I4
tp195
g116
I00
(lp196
F-3346.0276552934133
aF-2078.947138896298
aF-257.41284718071324
aF0.0
atp197
bsg173
g174
sg175
I3
sbI2
tp198
stp199
Rp200
sS'tag'
p201
g49
sS'RB'
p202
(lp203
I0
aI0
asS'RBd'
p204
Nsg14
g49
sbsg21
(ilib.spline
CubicSpline
p205
(dp206
g101
F0.0
sg62
F1.0
sg107
Nsg108
F0.009259259259259259
sg109
g59
(g60
(I0
tp207
g62
tp208
Rp209
(I1
(I108
I4
tp210
g116
I00
(lp211
F-79.86606851264315
aF-2.231374982718659
aF-0.020780074651005162
aF-6.450391923586969e-05
aF-67.28091689667176
aF-4.100289340959541
aF-0.07940659616654404
aF-0.0005016262184277572
aF-55.94707113293059
aF-5.654374650207613
aF-0.16972755904772138
aF-0.0016328187907324848
aF-45.19427964958293
aF-6.909771307140471
aF-0.28606224383798146
aF-0.0037250184289074227
aF-35.11144959355788
aF-7.885089351405968
aF-0.4230516943800781
aF-0.006994017027706945
aF-25.6571356080973
aF-8.597787562742004
aF-0.5756709250666334
aF-0.011607549127749792
aF-16.81287531581207
aF-9.064811877070117
aF-0.7392135124723012
aF-0.017688303778073962
aF-8.558135595068737
aF-9.302537865822027
aF-0.9092815656472285
aF-0.025316828574055553
aF-0.8761896085577988
aF-9.326876466059744
aF-1.0817761427942818
aF-0.03453434056157858
aF6.245332416667547
aF-9.153395010041201
aF-1.2528897675729942
aF-0.04534545790861527
aF12.813312417616018
aF-8.797469665107423
aF-1.4191014775280741
aF-0.05772087355730182
aF18.828705813531688
aF-8.274450059175987
aF-1.577174808308476
aF-0.07159999644563307
aF24.286749726069623
aF-7.599818122340719
aF-1.7241587729521493
aF-0.08689358801320962
aF29.177897999902402
aF-6.7893209556767635
aF-1.8573915421930518
aF-0.10348642065029394
aF33.489433937984906
aF-5.8590589018438495
aF-1.9745061705034281
aF-0.12123998033490031
aF37.20762891939872
aF-4.8255136540827746
aF-2.073437397873119
aF-0.13999522812584914
aF40.320237206612745
aF-3.705507065010198
aF-2.152428330457313
aF-0.15957542506469422
aF42.81906235618419
aF-2.516088666227304
aF-2.2100356983391416
aF-0.17978901336671801
aF44.70230581757961
aF-1.2743579490723147
aF-2.2451324262585826
aF-0.20043253478714007
aF45.976419317921895
aF0.0027648097588487837
aF-2.2569064368077814
aF-0.22129355608332682
aF46.657229870812316
aF1.2987989728369687
aF-2.2448549203022647
aF-0.24215356285439923
aF46.77018399466345
aF2.5979707504665086
aF-2.208773719160566
aF-0.2627907778030102
aF46.3496545586853
aF3.8854611548744336
aF-2.1487419422592606
aF-0.28298285834576925
aF45.437354604433054
aF5.147609893886463
aF-2.0651023955114747
aF-0.3025094317650755
aF44.07999213780458
aF6.37205411993659
aF-1.9584388398279278
aF-0.32115443354371087
aF42.326365857771144
aF7.5477865048746775
aF-1.829551426635231
aF-0.33870822553500896
aF40.224137154043525
aF8.665123648042552
aF-1.6794318881822936
aF-0.3549694842676342
aF37.81651795474085
aF9.715582480118687
aF-1.509240164773393
aF-0.36974686486876757
aF35.139092670961645
aF10.6916683876454
aF-1.320284138220022
aF-0.3828604616920042
aF32.216953254744794
aF11.586583755832756
aF-1.1140040257804096
aF-0.3941431017312178
aF29.062288343634876
aF12.393869543155946
aF-0.8919627915305142
aF-0.4034415204354368
aF25.67249055625932
aF13.106994280829817
aF-0.6558436820491647
aF-0.4106174809718093
aF22.02902722859459
aF13.718911703846333
aF-0.40745566367253333
aF-0.41554890680395445
aF18.09607535407528
aF14.221580463681757
aF-0.14874740286208815
aF-0.41813110362489997
aF13.825083234395942
aF14.60561055352609
aF0.11817103248242883
aF-0.4182781482935793
aF9.129719952676771
aF14.859213885544888
aF0.39099348099234515
aF-0.4159245289086655
aF4.076536435455106
aF14.972451008751975
aF0.667212600383983
aF-0.41102704472309853
aF-0.7764518650876021
aF14.950882901388429
aF0.944280506959357
aF-0.40356612029913586
aF-5.359524773373544
aF14.802007213239165
aF1.2197702302429458
aF-0.39354523960438137
aF-9.758938290790114
aF14.53092559405055
aF1.4913714599400727
aF-0.3809897842254593
aF-14.0256566245987
aF14.141324021145032
aF1.7568552526733652
aF-0.3659461305837747
aF-18.199176657466296
aF13.635791336215412
aF2.0140507652415174
aF-0.34848100880609184
aF-22.301500943634274
aF13.016305198892237
aF2.2608294368628843
aF-0.3286810449340761
aF-26.33690120544232
aF12.284724609852173
aF2.4950982313882957
aF-0.3066524077441124
aF-30.291474591625953
aF11.443294760084786
aF2.7148021144432675
aF-0.2825204755610534
aF-34.133676739668545
aF10.49513707287177
aF2.9179357425261983
aF-0.2564294372759408
aF-37.815789573306596
aF9.444698473613254
aF3.1025638494380967
aF-0.22854174428331836
aF-41.27646015989741
aF8.298130135838326
aF3.2668492995256115
aF-0.19903733715308833
aF-44.44433618246785
aF7.063565241880886
aF3.409087219689678
aF-0.16811258296470652
aF-47.242713540130154
aF5.751267643543937
aF3.5277430797399076
aF-0.13597887648017404
aF-49.59496365462922
aF4.3736297642486806
aF3.6214921298120615
aF-0.10286088028427022
aF-51.43035376785329
aF2.9450088262527565
aF3.689257301946334
aF-0.06899440456370955
aF-52.68974383639444
aF1.4814048307973553
aF3.7302426135856876
aF-0.03462395450901373
aF-53.33057391315084
aF-1.235014738620422e-10
aF3.743959324980816
aF8.11100773317987e-12
aF-53.33057391307562
aF-1.4814048310422685
aF3.7302426135811326
aF0.03462395452521492
aF-52.68974383622026
aF-2.945008826492831
aF3.689257301937289
aF0.06899440457984769
aF-51.430353767539444
aF-4.373629764480038
aF3.6214921297986513
aF0.10286088030030423
aF-49.59496365422014
aF-5.7512676437639305
aF3.527743079722318
aF0.1359788764960644
aF-47.242713539638416
aF-7.06356524208722
aF3.409087219668141
aF0.16811258298041537
aF-44.444336181900525
aF-8.2981301360289
aF3.266849299500399
aF0.19903733716858057
aF-41.27646015927497
aF-9.44469847378654
aF3.102563849409515
aF0.22854174429856128
aF-37.815789572674916
aF-10.495137073027509
aF2.91793574249457
aF0.2564294372909047
aF-34.133676739031955
aF-11.443294760222841
aF2.714802114408919
aF0.2825204755757116
aF-30.29147459098622
aF-12.284724609972457
aF2.495098231351555
aF0.3066524077584411
aF-26.336901204838142
aF-13.01630519899574
aF2.260829436824072
aF0.3286810449480549
aF-22.301500943061185
aF-13.635791336302995
aF2.014050765200935
aF0.3484810088197028
aF-18.199176656938455
aF-14.141324021217951
aF1.756855252631297
aF0.3659461305970029
aF-14.025656624123028
aF-14.530925594110258
aF1.4913714598967767
aF0.38098978423829216
aF-9.758938290378714
aF-14.802007213287444
aF1.2197702301986497
aF0.39354523961680865
aF-5.359524773014794
aF-14.950882901426745
aF0.9442805069142591
aF0.40356612031114913
aF-0.7764518647861234
aF-14.972451008781915
aF0.667212600338253
aF0.41102704473469126
aF4.076536435699548
aF-14.859213885568039
aF0.39099348094612374
aF0.4159245289198325
aF9.129719952875513
aF-14.605610553543718
aF0.11817103243582977
aF0.41827814830431653
aF13.825083234581621
aF-14.22158046369423
aF-0.14874740290896604
aF0.41813110363520434
aF18.09607535420618
aF-13.718911703855168
aF-0.4074556637196086
aF0.41554890681382384
aF22.029027228730495
aF-13.106994280834877
aF-0.6558436820963683
aF0.4106174809812422
aF25.67249055638101
aF-12.393869543157626
aF-0.8919627915777805
aF0.40344152044443227
aF29.06228834376387
aF-11.586583755830853
aF-1.1140040258276738
aF0.3941431017397755
aF32.21695325488291
aF-10.69166838763966
aF-1.3202841382672155
aF0.3828604617001244
aF35.13909267111661
aF-9.715582480108644
aF-1.5092401648204405
aF0.3697468648764515
aF37.81651795491694
aF-8.665123648027617
aF-1.6794318882291095
aF0.35496948427488356
aF40.22413715425435
aF-7.547786504853886
aF-1.8295514266817159
aF0.3387082255418261
aF42.32636585798814
aF-6.372054119909771
aF-1.9584388398739718
aF0.3211544335500995
aF44.07999213807426
aF-5.147609893852152
aF-2.065102395556953
aF0.3025094317710404
aF45.437354604704794
aF-3.885461154832575
aF-2.1487419423040337
aF0.28298285835131626
aF46.34965455900433
aF-2.5979707504157883
aF-2.2087737192044816
aF0.2627907778081467
aF46.77018399496326
aF-1.2987989727779201
aF-2.244854920345164
aF0.2421535628591337
aF46.657229871138796
aF-0.002764809690731358
aF-2.2569064368495035
aF0.2212935560876693
aF45.97641931823124
aF1.2743579491490251
aF-2.2451324262989636
aF0.20043253479110232
aF44.70230581788978
aF2.5160886663126303
aF-2.2100356983780225
aF0.17978901337031322
aF42.81906235644329
aF3.7055070651027213
aF-2.152428330494547
aF0.1595754250679369
aF40.32023720687522
aF4.825513654182589
aF-2.0734373979085716
aF0.13999522812875523
aF37.20762891959988
aF5.859058901949251
aF-1.9745061705369804
aF0.12123998033748687
aF33.48943393813948
aF6.78932095578646
aF-1.857391542224613
aF0.10348642065257899
aF29.177897999991977
aF7.599818122452903
aF-1.724158772981656
aF0.08689358801521191
aF24.286749726102553
aF8.274450059289086
aF-1.5771748083358972
aF0.07159999644737179
aF18.828705813493677
aF8.797469665219465
aF-1.4191014775534108
aF0.05772087355879631
aF12.81331241750228
aF9.153395010150083
aF-1.2528897675962858
aF0.04534545790988465
aF6.245332416458164
aF9.32687646616281
aF-1.0817761428156099
aF0.034534340562641486
aF-0.8761896088261484
aF9.302537865917639
aF-0.909281565666717
aF0.02531682857492957
aF-8.558135595452208
aF9.064811877155078
aF-0.7392135124901182
aF0.01768830377877545
aF-16.812875316299294
aF8.597787562813432
aF-0.5756709250830029
aF0.0116075491282932
aF-25.657135608531046
aF7.885089351465347
aF-0.42305169439523566
aF0.006994017028104561
aF-35.111449594943274
aF6.909771307161368
aF-0.2860622438523966
aF0.0037250184291686963
aF-45.19427964644594
aF5.6543746503156465
aF-0.16972755906094164
aF0.0016328187908645766
aF-55.94707115557224
aF4.10028934043864
aF-0.07940659618358759
aF0.0005016262184287289
aF-67.28091677667743
aF2.231374985530934
aF-0.020780074646831802
aF6.450391912959514e-05
aF-79.8660687313457
aF0.012873076326912525
aF2.1383443078787562e-16
aF-1.7431583678978164e-17
atp212
bsg121
g59
(g60
(I0
tp213
g62
tp214
Rp215
(I1
(I107
tp216
g116
I00
(lp217
F-79.86606851264315
aF-67.28091689667176
aF-55.94707113293059
aF-45.19427964958293
aF-35.11144959355788
aF-25.6571356080973
aF-16.81287531581207
aF-8.558135595068737
aF-0.8761896085577988
aF6.245332416667547
aF12.813312417616018
aF18.828705813531688
aF24.286749726069623
aF29.177897999902402
aF33.489433937984906
aF37.20762891939872
aF40.320237206612745
aF42.81906235618419
aF44.70230581757961
aF45.976419317921895
aF46.657229870812316
aF46.77018399466345
aF46.3496545586853
aF45.437354604433054
aF44.07999213780458
aF42.326365857771144
aF40.224137154043525
aF37.81651795474085
aF35.139092670961645
aF32.216953254744794
aF29.062288343634876
aF25.67249055625932
aF22.02902722859459
aF18.09607535407528
aF13.825083234395942
aF9.129719952676771
aF4.076536435455106
aF-0.7764518650876021
aF-5.359524773373544
aF-9.758938290790114
aF-14.0256566245987
aF-18.199176657466296
aF-22.301500943634274
aF-26.33690120544232
aF-30.291474591625953
aF-34.133676739668545
aF-37.815789573306596
aF-41.27646015989741
aF-44.44433618246785
aF-47.242713540130154
aF-49.59496365462922
aF-51.43035376785329
aF-52.68974383639444
aF-53.33057391315084
aF-53.33057391307562
aF-52.68974383622026
aF-51.430353767539444
aF-49.59496365422014
aF-47.242713539638416
aF-44.444336181900525
aF-41.27646015927497
aF-37.815789572674916
aF-34.133676739031955
aF-30.29147459098622
aF-26.336901204838142
aF-22.301500943061185
aF-18.199176656938455
aF-14.025656624123028
aF-9.758938290378714
aF-5.359524773014794
aF-0.7764518647861234
aF4.076536435699548
aF9.129719952875513
aF13.825083234581621
aF18.09607535420618
aF22.029027228730495
aF25.67249055638101
aF29.06228834376387
aF32.21695325488291
aF35.13909267111661
aF37.81651795491694
aF40.22413715425435
aF42.32636585798814
aF44.07999213807426
aF45.437354604704794
aF46.34965455900433
aF46.77018399496326
aF46.657229871138796
aF45.97641931823124
aF44.70230581788978
aF42.81906235644329
aF40.32023720687522
aF37.20762891959988
aF33.48943393813948
aF29.177897999991977
aF24.286749726102553
aF18.828705813493677
aF12.81331241750228
aF6.245332416458164
aF-0.8761896088261484
aF-8.558135595452208
aF-16.812875316299294
aF-25.657135608531046
aF-35.111449594943274
aF-45.19427964644594
aF-55.94707115557224
aF-67.28091677667743
atp218
bsg156
I108
sg157
g10
(g158
g12
(dp219
(I54
I55
tp220
(g10
(g161
g162
Ntp221
Rp222
(dp223
g166
g59
(g60
(I0
tp224
g62
tp225
Rp226
(I1
(I4
tp227
g116
I00
(lp228
F-53.33057391307562
aF-1.4814048310422685
aF3.7302426135811326
aF0.03462395452521492
atp229
bsg173
g174
sg175
I3
sbI54
tp230
s(I39
I40
tp231
(g10
(g161
g162
Ntp232
Rp233
(dp234
g166
g59
(g60
(I0
tp235
g62
tp236
Rp237
(I1
(I4
tp238
g116
I00
(lp239
F-9.758938290790114
aF14.53092559405055
aF1.4913714599400727
aF-0.3809897842254593
atp240
bsg173
g174
sg175
I3
sbI39
tp241
s(I92
I93
tp242
(g10
(g161
g162
Ntp243
Rp244
(dp245
g166
g59
(g60
(I0
tp246
g62
tp247
Rp248
(I1
(I4
tp249
g116
I00
(lp250
F37.20762891959988
aF5.859058901949251
aF-1.9745061705369804
aF0.12123998033748687
atp251
bsg173
g174
sg175
I3
sbI92
tp252
s(I40
I41
tp253
(g10
(g161
g162
Ntp254
Rp255
(dp256
g166
g59
(g60
(I0
tp257
g62
tp258
Rp259
(I1
(I4
tp260
g116
I00
(lp261
F-14.0256566245987
aF14.141324021145032
aF1.7568552526733652
aF-0.3659461305837747
atp262
bsg173
g174
sg175
I3
sbI40
tp263
s(I53
I54
tp264
(g10
(g161
g162
Ntp265
Rp266
(dp267
g166
g59
(g60
(I0
tp268
g62
tp269
Rp270
(I1
(I4
tp271
g116
I00
(lp272
F-53.33057391315084
aF-1.235014738620422e-10
aF3.743959324980816
aF8.11100773317987e-12
atp273
bsg173
g174
sg175
I3
sbI53
tp274
s(I104
I105
tp275
(g10
(g161
g162
Ntp276
Rp277
(dp278
g166
g59
(g60
(I0
tp279
g62
tp280
Rp281
(I1
(I4
tp282
g116
I00
(lp283
F-45.19427964644594
aF5.6543746503156465
aF-0.16972755906094164
aF0.0016328187908645766
atp284
bsg173
g174
sg175
I3
sbI104
tp285
s(I103
I104
tp286
(g10
(g161
g162
Ntp287
Rp288
(dp289
g166
g59
(g60
(I0
tp290
g62
tp291
Rp292
(I1
(I4
tp293
g116
I00
(lp294
F-35.111449594943274
aF6.909771307161368
aF-0.2860622438523966
aF0.0037250184291686963
atp295
bsg173
g174
sg175
I3
sbI103
tp296
s(I94
I95
tp297
(g10
(g161
g162
Ntp298
Rp299
(dp300
g166
g59
(g60
(I0
tp301
g62
tp302
Rp303
(I1
(I4
tp304
g116
I00
(lp305
F29.177897999991977
aF7.599818122452903
aF-1.724158772981656
aF0.08689358801521191
atp306
bsg173
g174
sg175
I3
sbI94
tp307
s(I74
I75
tp308
(g10
(g161
g162
Ntp309
Rp310
(dp311
g166
g59
(g60
(I0
tp312
g62
tp313
Rp314
(I1
(I4
tp315
g116
I00
(lp316
F18.09607535420618
aF-13.718911703855168
aF-0.4074556637196086
aF0.41554890681382384
atp317
bsg173
g174
sg175
I3
sbI74
tp318
s(I95
I96
tp319
(g10
(g161
g162
Ntp320
Rp321
(dp322
g166
g59
(g60
(I0
tp323
g62
tp324
Rp325
(I1
(I4
tp326
g116
I00
(lp327
F24.286749726102553
aF8.274450059289086
aF-1.5771748083358972
aF0.07159999644737179
atp328
bsg173
g174
sg175
I3
sbI95
tp329
s(I19
I20
tp330
(g10
(g161
g162
Ntp331
Rp332
(dp333
g166
g59
(g60
(I0
tp334
g62
tp335
Rp336
(I1
(I4
tp337
g116
I00
(lp338
F45.976419317921895
aF0.0027648097588487837
aF-2.2569064368077814
aF-0.22129355608332682
atp339
bsg173
g174
sg175
I3
sbI19
tp340
s(I61
I62
tp341
(g10
(g161
g162
Ntp342
Rp343
(dp344
g166
g59
(g60
(I0
tp345
g62
tp346
Rp347
(I1
(I4
tp348
g116
I00
(lp349
F-37.815789572674916
aF-10.495137073027509
aF2.91793574249457
aF0.2564294372909047
atp350
bsg173
g174
sg175
I3
sbI61
tp351
s(I80
I81
tp352
(g10
(g161
g162
Ntp353
Rp354
(dp355
g166
g59
(g60
(I0
tp356
g62
tp357
Rp358
(I1
(I4
tp359
g116
I00
(lp360
F37.81651795491694
aF-8.665123648027617
aF-1.6794318882291095
aF0.35496948427488356
atp361
bsg173
g174
sg175
I3
sbI80
tp362
s(I56
I57
tp363
(g10
(g161
g162
Ntp364
Rp365
(dp366
g166
g59
(g60
(I0
tp367
g62
tp368
Rp369
(I1
(I4
tp370
g116
I00
(lp371
F-51.430353767539444
aF-4.373629764480038
aF3.6214921297986513
aF0.10286088030030423
atp372
bsg173
g174
sg175
I3
sbI56
tp373
s(I6
I7
tp374
(g10
(g161
g162
Ntp375
Rp376
(dp377
g166
g59
(g60
(I0
tp378
g62
tp379
Rp380
(I1
(I4
tp381
g116
I00
(lp382
F-16.81287531581207
aF-9.064811877070117
aF-0.7392135124723012
aF-0.017688303778073962
atp383
bsg173
g174
sg175
I3
sbI6
tp384
s(I76
I77
tp385
(g10
(g161
g162
Ntp386
Rp387
(dp388
g166
g59
(g60
(I0
tp389
g62
tp390
Rp391
(I1
(I4
tp392
g116
I00
(lp393
F25.67249055638101
aF-12.393869543157626
aF-0.8919627915777805
aF0.40344152044443227
atp394
bsg173
g174
sg175
I3
sbI76
tp395
s(I55
I56
tp396
(g10
(g161
g162
Ntp397
Rp398
(dp399
g166
g59
(g60
(I0
tp400
g62
tp401
Rp402
(I1
(I4
tp403
g116
I00
(lp404
F-52.68974383622026
aF-2.945008826492831
aF3.689257301937289
aF0.06899440457984769
atp405
bsg173
g174
sg175
I3
sbI55
tp406
s(I25
I26
tp407
(g10
(g161
g162
Ntp408
Rp409
(dp410
g166
g59
(g60
(I0
tp411
g62
tp412
Rp413
(I1
(I4
tp414
g116
I00
(lp415
F42.326365857771144
aF7.5477865048746775
aF-1.829551426635231
aF-0.33870822553500896
atp416
bsg173
g174
sg175
I3
sbI25
tp417
s(I28
I29
tp418
(g10
(g161
g162
Ntp419
Rp420
(dp421
g166
g59
(g60
(I0
tp422
g62
tp423
Rp424
(I1
(I4
tp425
g116
I00
(lp426
F35.139092670961645
aF10.6916683876454
aF-1.320284138220022
aF-0.3828604616920042
atp427
bsg173
g174
sg175
I3
sbI28
tp428
s(I82
I83
tp429
(g10
(g161
g162
Ntp430
Rp431
(dp432
g166
g59
(g60
(I0
tp433
g62
tp434
Rp435
(I1
(I4
tp436
g116
I00
(lp437
F42.32636585798814
aF-6.372054119909771
aF-1.9584388398739718
aF0.3211544335500995
atp438
bsg173
g174
sg175
I3
sbI82
tp439
s(I4
I5
tp440
(g10
(g161
g162
Ntp441
Rp442
(dp443
g166
g59
(g60
(I0
tp444
g62
tp445
Rp446
(I1
(I4
tp447
g116
I00
(lp448
F-35.11144959355788
aF-7.885089351405968
aF-0.4230516943800781
aF-0.006994017027706945
atp449
bsg173
g174
sg175
I3
sbI4
tp450
s(I91
I92
tp451
(g10
(g161
g162
Ntp452
Rp453
(dp454
g166
g59
(g60
(I0
tp455
g62
tp456
Rp457
(I1
(I4
tp458
g116
I00
(lp459
F40.32023720687522
aF4.825513654182589
aF-2.0734373979085716
aF0.13999522812875523
atp460
bsg173
g174
sg175
I3
sbI91
tp461
s(I27
I28
tp462
(g10
(g161
g162
Ntp463
Rp464
(dp465
g166
g59
(g60
(I0
tp466
g62
tp467
Rp468
(I1
(I4
tp469
g116
I00
(lp470
F37.81651795474085
aF9.715582480118687
aF-1.509240164773393
aF-0.36974686486876757
atp471
bsg173
g174
sg175
I3
sbI27
tp472
s(I36
I37
tp473
(g10
(g161
g162
Ntp474
Rp475
(dp476
g166
g59
(g60
(I0
tp477
g62
tp478
Rp479
(I1
(I4
tp480
g116
I00
(lp481
F4.076536435455106
aF14.972451008751975
aF0.667212600383983
aF-0.41102704472309853
atp482
bsg173
g174
sg175
I3
sbI36
tp483
s(I17
I18
tp484
(g10
(g161
g162
Ntp485
Rp486
(dp487
g166
g59
(g60
(I0
tp488
g62
tp489
Rp490
(I1
(I4
tp491
g116
I00
(lp492
F42.81906235618419
aF-2.516088666227304
aF-2.2100356983391416
aF-0.17978901336671801
atp493
bsg173
g174
sg175
I3
sbI17
tp494
s(I93
I94
tp495
(g10
(g161
g162
Ntp496
Rp497
(dp498
g166
g59
(g60
(I0
tp499
g62
tp500
Rp501
(I1
(I4
tp502
g116
I00
(lp503
F33.48943393813948
aF6.78932095578646
aF-1.857391542224613
aF0.10348642065257899
atp504
bsg173
g174
sg175
I3
sbI93
tp505
s(I1
I2
tp506
(g10
(g161
g162
Ntp507
Rp508
(dp509
g166
g59
(g60
(I0
tp510
g62
tp511
Rp512
(I1
(I4
tp513
g116
I00
(lp514
F-67.28091689667176
aF-4.100289340959541
aF-0.07940659616654404
aF-0.0005016262184277572
atp515
bsg173
g174
sg175
I3
sbI1
tp516
s(I9
I10
tp517
(g10
(g161
g162
Ntp518
Rp519
(dp520
g166
g59
(g60
(I0
tp521
g62
tp522
Rp523
(I1
(I4
tp524
g116
I00
(lp525
F6.245332416667547
aF-9.153395010041201
aF-1.2528897675729942
aF-0.04534545790861527
atp526
bsg173
g174
sg175
I3
sbI9
tp527
s(I42
I43
tp528
(g10
(g161
g162
Ntp529
Rp530
(dp531
g166
g59
(g60
(I0
tp532
g62
tp533
Rp534
(I1
(I4
tp535
g116
I00
(lp536
F-22.301500943634274
aF13.016305198892237
aF2.2608294368628843
aF-0.3286810449340761
atp537
bsg173
g174
sg175
I3
sbI42
tp538
s(I29
I30
tp539
(g10
(g161
g162
Ntp540
Rp541
(dp542
g166
g59
(g60
(I0
tp543
g62
tp544
Rp545
(I1
(I4
tp546
g116
I00
(lp547
F32.216953254744794
aF11.586583755832756
aF-1.1140040257804096
aF-0.3941431017312178
atp548
bsg173
g174
sg175
I3
sbI29
tp549
s(I79
I80
tp550
(g10
(g161
g162
Ntp551
Rp552
(dp553
g166
g59
(g60
(I0
tp554
g62
tp555
Rp556
(I1
(I4
tp557
g116
I00
(lp558
F35.13909267111661
aF-9.715582480108644
aF-1.5092401648204405
aF0.3697468648764515
atp559
bsg173
g174
sg175
I3
sbI79
tp560
s(I78
I79
tp561
(g10
(g161
g162
Ntp562
Rp563
(dp564
g166
g59
(g60
(I0
tp565
g62
tp566
Rp567
(I1
(I4
tp568
g116
I00
(lp569
F32.21695325488291
aF-10.69166838763966
aF-1.3202841382672155
aF0.3828604617001244
atp570
bsg173
g174
sg175
I3
sbI78
tp571
s(I105
I106
tp572
(g10
(g161
g162
Ntp573
Rp574
(dp575
g166
g59
(g60
(I0
tp576
g62
tp577
Rp578
(I1
(I4
tp579
g116
I00
(lp580
F-55.94707115557224
aF4.10028934043864
aF-0.07940659618358759
aF0.0005016262184287289
atp581
bsg173
g174
sg175
I3
sbI105
tp582
s(I106
I107
tp583
(g10
(g161
g162
Ntp584
Rp585
(dp586
g166
g59
(g60
(I0
tp587
g62
tp588
Rp589
(I1
(I4
tp590
g116
I00
(lp591
F-67.28091677667743
aF2.231374985530934
aF-0.020780074646831802
aF6.450391912959514e-05
atp592
bsg173
g174
sg175
I3
sbI106
tp593
s(I14
I15
tp594
(g10
(g161
g162
Ntp595
Rp596
(dp597
g166
g59
(g60
(I0
tp598
g62
tp599
Rp600
(I1
(I4
tp601
g116
I00
(lp602
F33.489433937984906
aF-5.8590589018438495
aF-1.9745061705034281
aF-0.12123998033490031
atp603
bsg173
g174
sg175
I3
sbI14
tp604
s(I88
I89
tp605
(g10
(g161
g162
Ntp606
Rp607
(dp608
g166
g59
(g60
(I0
tp609
g62
tp610
Rp611
(I1
(I4
tp612
g116
I00
(lp613
F45.97641931823124
aF1.2743579491490251
aF-2.2451324262989636
aF0.20043253479110232
atp614
bsg173
g174
sg175
I3
sbI88
tp615
s(I38
I39
tp616
(g10
(g161
g162
Ntp617
Rp618
(dp619
g166
g59
(g60
(I0
tp620
g62
tp621
Rp622
(I1
(I4
tp623
g116
I00
(lp624
F-5.359524773373544
aF14.802007213239165
aF1.2197702302429458
aF-0.39354523960438137
atp625
bsg173
g174
sg175
I3
sbI38
tp626
s(I51
I52
tp627
(g10
(g161
g162
Ntp628
Rp629
(dp630
g166
g59
(g60
(I0
tp631
g62
tp632
Rp633
(I1
(I4
tp634
g116
I00
(lp635
F-51.43035376785329
aF2.9450088262527565
aF3.689257301946334
aF-0.06899440456370955
atp636
bsg173
g174
sg175
I3
sbI51
tp637
s(I85
I86
tp638
(g10
(g161
g162
Ntp639
Rp640
(dp641
g166
g59
(g60
(I0
tp642
g62
tp643
Rp644
(I1
(I4
tp645
g116
I00
(lp646
F46.34965455900433
aF-2.5979707504157883
aF-2.2087737192044816
aF0.2627907778081467
atp647
bsg173
g174
sg175
I3
sbI85
tp648
s(I16
I17
tp649
(g10
(g161
g162
Ntp650
Rp651
(dp652
g166
g59
(g60
(I0
tp653
g62
tp654
Rp655
(I1
(I4
tp656
g116
I00
(lp657
F40.320237206612745
aF-3.705507065010198
aF-2.152428330457313
aF-0.15957542506469422
atp658
bsg173
g174
sg175
I3
sbI16
tp659
s(I33
I34
tp660
(g10
(g161
g162
Ntp661
Rp662
(dp663
g166
g59
(g60
(I0
tp664
g62
tp665
Rp666
(I1
(I4
tp667
g116
I00
(lp668
F18.09607535407528
aF14.221580463681757
aF-0.14874740286208815
aF-0.41813110362489997
atp669
bsg173
g174
sg175
I3
sbI33
tp670
s(I72
I73
tp671
(g10
(g161
g162
Ntp672
Rp673
(dp674
g166
g59
(g60
(I0
tp675
g62
tp676
Rp677
(I1
(I4
tp678
g116
I00
(lp679
F9.129719952875513
aF-14.605610553543718
aF0.11817103243582977
aF0.41827814830431653
atp680
bsg173
g174
sg175
I3
sbI72
tp681
s(I48
I49
tp682
(g10
(g161
g162
Ntp683
Rp684
(dp685
g166
g59
(g60
(I0
tp686
g62
tp687
Rp688
(I1
(I4
tp689
g116
I00
(lp690
F-44.44433618246785
aF7.063565241880886
aF3.409087219689678
aF-0.16811258296470652
atp691
bsg173
g174
sg175
I3
sbI48
tp692
s(I45
I46
tp693
(g10
(g161
g162
Ntp694
Rp695
(dp696
g166
g59
(g60
(I0
tp697
g62
tp698
Rp699
(I1
(I4
tp700
g116
I00
(lp701
F-34.133676739668545
aF10.49513707287177
aF2.9179357425261983
aF-0.2564294372759408
atp702
bsg173
g174
sg175
I3
sbI45
tp703
s(I35
I36
tp704
(g10
(g161
g162
Ntp705
Rp706
(dp707
g166
g59
(g60
(I0
tp708
g62
tp709
Rp710
(I1
(I4
tp711
g116
I00
(lp712
F9.129719952676771
aF14.859213885544888
aF0.39099348099234515
aF-0.4159245289086655
atp713
bsg173
g174
sg175
I3
sbI35
tp714
s(I20
I21
tp715
(g10
(g161
g162
Ntp716
Rp717
(dp718
g166
g59
(g60
(I0
tp719
g62
tp720
Rp721
(I1
(I4
tp722
g116
I00
(lp723
F46.657229870812316
aF1.2987989728369687
aF-2.2448549203022647
aF-0.24215356285439923
atp724
bsg173
g174
sg175
I3
sbI20
tp725
s(I13
I14
tp726
(g10
(g161
g162
Ntp727
Rp728
(dp729
g166
g59
(g60
(I0
tp730
g62
tp731
Rp732
(I1
(I4
tp733
g116
I00
(lp734
F29.177897999902402
aF-6.7893209556767635
aF-1.8573915421930518
aF-0.10348642065029394
atp735
bsg173
g174
sg175
I3
sbI13
tp736
s(I83
I84
tp737
(g10
(g161
g162
Ntp738
Rp739
(dp740
g166
g59
(g60
(I0
tp741
g62
tp742
Rp743
(I1
(I4
tp744
g116
I00
(lp745
F44.07999213807426
aF-5.147609893852152
aF-2.065102395556953
aF0.3025094317710404
atp746
bsg173
g174
sg175
I3
sbI83
tp747
s(I67
I68
tp748
(g10
(g161
g162
Ntp749
Rp750
(dp751
g166
g59
(g60
(I0
tp752
g62
tp753
Rp754
(I1
(I4
tp755
g116
I00
(lp756
F-14.025656624123028
aF-14.530925594110258
aF1.4913714598967767
aF0.38098978423829216
atp757
bsg173
g174
sg175
I3
sbI67
tp758
s(I30
I31
tp759
(g10
(g161
g162
Ntp760
Rp761
(dp762
g166
g59
(g60
(I0
tp763
g62
tp764
Rp765
(I1
(I4
tp766
g116
I00
(lp767
F29.062288343634876
aF12.393869543155946
aF-0.8919627915305142
aF-0.4034415204354368
atp768
bsg173
g174
sg175
I3
sbI30
tp769
s(I43
I44
tp770
(g10
(g161
g162
Ntp771
Rp772
(dp773
g166
g59
(g60
(I0
tp774
g62
tp775
Rp776
(I1
(I4
tp777
g116
I00
(lp778
F-26.33690120544232
aF12.284724609852173
aF2.4950982313882957
aF-0.3066524077441124
atp779
bsg173
g174
sg175
I3
sbI43
tp780
s(I18
I19
tp781
(g10
(g161
g162
Ntp782
Rp783
(dp784
g166
g59
(g60
(I0
tp785
g62
tp786
Rp787
(I1
(I4
tp788
g116
I00
(lp789
F44.70230581757961
aF-1.2743579490723147
aF-2.2451324262585826
aF-0.20043253478714007
atp790
bsg173
g174
sg175
I3
sbI18
tp791
s(I7
I8
tp792
(g10
(g161
g162
Ntp793
Rp794
(dp795
g166
g59
(g60
(I0
tp796
g62
tp797
Rp798
(I1
(I4
tp799
g116
I00
(lp800
F-8.558135595068737
aF-9.302537865822027
aF-0.9092815656472285
aF-0.025316828574055553
atp801
bsg173
g174
sg175
I3
sbI7
tp802
s(I22
I23
tp803
(g10
(g161
g162
Ntp804
Rp805
(dp806
g166
g59
(g60
(I0
tp807
g62
tp808
Rp809
(I1
(I4
tp810
g116
I00
(lp811
F46.3496545586853
aF3.8854611548744336
aF-2.1487419422592606
aF-0.28298285834576925
atp812
bsg173
g174
sg175
I3
sbI22
tp813
s(I23
I24
tp814
(g10
(g161
g162
Ntp815
Rp816
(dp817
g166
g59
(g60
(I0
tp818
g62
tp819
Rp820
(I1
(I4
tp821
g116
I00
(lp822
F45.437354604433054
aF5.147609893886463
aF-2.0651023955114747
aF-0.3025094317650755
atp823
bsg173
g174
sg175
I3
sbI23
tp824
s(I52
I53
tp825
(g10
(g161
g162
Ntp826
Rp827
(dp828
g166
g59
(g60
(I0
tp829
g62
tp830
Rp831
(I1
(I4
tp832
g116
I00
(lp833
F-52.68974383639444
aF1.4814048307973553
aF3.7302426135856876
aF-0.03462395450901373
atp834
bsg173
g174
sg175
I3
sbI52
tp835
s(I69
I70
tp836
(g10
(g161
g162
Ntp837
Rp838
(dp839
g166
g59
(g60
(I0
tp840
g62
tp841
Rp842
(I1
(I4
tp843
g116
I00
(lp844
F-5.359524773014794
aF-14.950882901426745
aF0.9442805069142591
aF0.40356612031114913
atp845
bsg173
g174
sg175
I3
sbI69
tp846
s(I107
I108
tp847
(g10
(g161
g162
Ntp848
Rp849
(dp850
g166
g59
(g60
(I0
tp851
g62
tp852
Rp853
(I1
(I4
tp854
g116
I00
(lp855
F-79.8660687313457
aF0.012873076326912525
aF2.1383443078787562e-16
aF-1.7431583678978164e-17
atp856
bsg173
g174
sg175
I3
sbI107
tp857
s(I8
I9
tp858
(g10
(g161
g162
Ntp859
Rp860
(dp861
g166
g59
(g60
(I0
tp862
g62
tp863
Rp864
(I1
(I4
tp865
g116
I00
(lp866
F-0.8761896085577988
aF-9.326876466059744
aF-1.0817761427942818
aF-0.03453434056157858
atp867
bsg173
g174
sg175
I3
sbI8
tp868
s(I60
I61
tp869
(g10
(g161
g162
Ntp870
Rp871
(dp872
g166
g59
(g60
(I0
tp873
g62
tp874
Rp875
(I1
(I4
tp876
g116
I00
(lp877
F-41.27646015927497
aF-9.44469847378654
aF3.102563849409515
aF0.22854174429856128
atp878
bsg173
g174
sg175
I3
sbI60
tp879
s(I90
I91
tp880
(g10
(g161
g162
Ntp881
Rp882
(dp883
g166
g59
(g60
(I0
tp884
g62
tp885
Rp886
(I1
(I4
tp887
g116
I00
(lp888
F42.81906235644329
aF3.7055070651027213
aF-2.152428330494547
aF0.1595754250679369
atp889
bsg173
g174
sg175
I3
sbI90
tp890
s(I98
I99
tp891
(g10
(g161
g162
Ntp892
Rp893
(dp894
g166
g59
(g60
(I0
tp895
g62
tp896
Rp897
(I1
(I4
tp898
g116
I00
(lp899
F6.245332416458164
aF9.32687646616281
aF-1.0817761428156099
aF0.034534340562641486
atp900
bsg173
g174
sg175
I3
sbI98
tp901
s(I71
I72
tp902
(g10
(g161
g162
Ntp903
Rp904
(dp905
g166
g59
(g60
(I0
tp906
g62
tp907
Rp908
(I1
(I4
tp909
g116
I00
(lp910
F4.076536435699548
aF-14.859213885568039
aF0.39099348094612374
aF0.4159245289198325
atp911
bsg173
g174
sg175
I3
sbI71
tp912
s(I70
I71
tp913
(g10
(g161
g162
Ntp914
Rp915
(dp916
g166
g59
(g60
(I0
tp917
g62
tp918
Rp919
(I1
(I4
tp920
g116
I00
(lp921
F-0.7764518647861234
aF-14.972451008781915
aF0.667212600338253
aF0.41102704473469126
atp922
bsg173
g174
sg175
I3
sbI70
tp923
s(I87
I88
tp924
(g10
(g161
g162
Ntp925
Rp926
(dp927
g166
g59
(g60
(I0
tp928
g62
tp929
Rp930
(I1
(I4
tp931
g116
I00
(lp932
F46.657229871138796
aF-0.002764809690731358
aF-2.2569064368495035
aF0.2212935560876693
atp933
bsg173
g174
sg175
I3
sbI87
tp934
s(I65
I66
tp935
(g10
(g161
g162
Ntp936
Rp937
(dp938
g166
g59
(g60
(I0
tp939
g62
tp940
Rp941
(I1
(I4
tp942
g116
I00
(lp943
F-22.301500943061185
aF-13.635791336302995
aF2.014050765200935
aF0.3484810088197028
atp944
bsg173
g174
sg175
I3
sbI65
tp945
s(I24
I25
tp946
(g10
(g161
g162
Ntp947
Rp948
(dp949
g166
g59
(g60
(I0
tp950
g62
tp951
Rp952
(I1
(I4
tp953
g116
I00
(lp954
F44.07999213780458
aF6.37205411993659
aF-1.9584388398279278
aF-0.32115443354371087
atp955
bsg173
g174
sg175
I3
sbI24
tp956
s(I58
I59
tp957
(g10
(g161
g162
Ntp958
Rp959
(dp960
g166
g59
(g60
(I0
tp961
g62
tp962
Rp963
(I1
(I4
tp964
g116
I00
(lp965
F-47.242713539638416
aF-7.06356524208722
aF3.409087219668141
aF0.16811258298041537
atp966
bsg173
g174
sg175
I3
sbI58
tp967
s(I12
I13
tp968
(g10
(g161
g162
Ntp969
Rp970
(dp971
g166
g59
(g60
(I0
tp972
g62
tp973
Rp974
(I1
(I4
tp975
g116
I00
(lp976
F24.286749726069623
aF-7.599818122340719
aF-1.7241587729521493
aF-0.08689358801320962
atp977
bsg173
g174
sg175
I3
sbI12
tp978
s(I31
I32
tp979
(g10
(g161
g162
Ntp980
Rp981
(dp982
g166
g59
(g60
(I0
tp983
g62
tp984
Rp985
(I1
(I4
tp986
g116
I00
(lp987
F25.67249055625932
aF13.106994280829817
aF-0.6558436820491647
aF-0.4106174809718093
atp988
bsg173
g174
sg175
I3
sbI31
tp989
s(I89
I90
tp990
(g10
(g161
g162
Ntp991
Rp992
(dp993
g166
g59
(g60
(I0
tp994
g62
tp995
Rp996
(I1
(I4
tp997
g116
I00
(lp998
F44.70230581788978
aF2.5160886663126303
aF-2.2100356983780225
aF0.17978901337031322
atp999
bsg173
g174
sg175
I3
sbI89
tp1000
s(I68
I69
tp1001
(g10
(g161
g162
Ntp1002
Rp1003
(dp1004
g166
g59
(g60
(I0
tp1005
g62
tp1006
Rp1007
(I1
(I4
tp1008
g116
I00
(lp1009
F-9.758938290378714
aF-14.802007213287444
aF1.2197702301986497
aF0.39354523961680865
atp1010
bsg173
g174
sg175
I3
sbI68
tp1011
s(I66
I67
tp1012
(g10
(g161
g162
Ntp1013
Rp1014
(dp1015
g166
g59
(g60
(I0
tp1016
g62
tp1017
Rp1018
(I1
(I4
tp1019
g116
I00
(lp1020
F-18.199176656938455
aF-14.141324021217951
aF1.756855252631297
aF0.3659461305970029
atp1021
bsg173
g174
sg175
I3
sbI66
tp1022
s(I47
I48
tp1023
(g10
(g161
g162
Ntp1024
Rp1025
(dp1026
g166
g59
(g60
(I0
tp1027
g62
tp1028
Rp1029
(I1
(I4
tp1030
g116
I00
(lp1031
F-41.27646015989741
aF8.298130135838326
aF3.2668492995256115
aF-0.19903733715308833
atp1032
bsg173
g174
sg175
I3
sbI47
tp1033
s(I0
I1
tp1034
(g10
(g161
g162
Ntp1035
Rp1036
(dp1037
g166
g59
(g60
(I0
tp1038
g62
tp1039
Rp1040
(I1
(I4
tp1041
g116
I00
(lp1042
F-79.86606851264315
aF-2.231374982718659
aF-0.020780074651005162
aF-6.450391923586969e-05
atp1043
bsg173
g174
sg175
I3
sbI0
tp1044
s(I63
I64
tp1045
(g10
(g161
g162
Ntp1046
Rp1047
(dp1048
g166
g59
(g60
(I0
tp1049
g62
tp1050
Rp1051
(I1
(I4
tp1052
g116
I00
(lp1053
F-30.29147459098622
aF-12.284724609972457
aF2.495098231351555
aF0.3066524077584411
atp1054
bsg173
g174
sg175
I3
sbI63
tp1055
s(I21
I22
tp1056
(g10
(g161
g162
Ntp1057
Rp1058
(dp1059
g166
g59
(g60
(I0
tp1060
g62
tp1061
Rp1062
(I1
(I4
tp1063
g116
I00
(lp1064
F46.77018399466345
aF2.5979707504665086
aF-2.208773719160566
aF-0.2627907778030102
atp1065
bsg173
g174
sg175
I3
sbI21
tp1066
s(I99
I100
tp1067
(g10
(g161
g162
Ntp1068
Rp1069
(dp1070
g166
g59
(g60
(I0
tp1071
g62
tp1072
Rp1073
(I1
(I4
tp1074
g116
I00
(lp1075
F-0.8761896088261484
aF9.302537865917639
aF-0.909281565666717
aF0.02531682857492957
atp1076
bsg173
g174
sg175
I3
sbI99
tp1077
s(I100
I101
tp1078
(g10
(g161
g162
Ntp1079
Rp1080
(dp1081
g166
g59
(g60
(I0
tp1082
g62
tp1083
Rp1084
(I1
(I4
tp1085
g116
I00
(lp1086
F-8.558135595452208
aF9.064811877155078
aF-0.7392135124901182
aF0.01768830377877545
atp1087
bsg173
g174
sg175
I3
sbI100
tp1088
s(I32
I33
tp1089
(g10
(g161
g162
Ntp1090
Rp1091
(dp1092
g166
g59
(g60
(I0
tp1093
g62
tp1094
Rp1095
(I1
(I4
tp1096
g116
I00
(lp1097
F22.02902722859459
aF13.718911703846333
aF-0.40745566367253333
aF-0.41554890680395445
atp1098
bsg173
g174
sg175
I3
sbI32
tp1099
s(I96
I97
tp1100
(g10
(g161
g162
Ntp1101
Rp1102
(dp1103
g166
g59
(g60
(I0
tp1104
g62
tp1105
Rp1106
(I1
(I4
tp1107
g116
I00
(lp1108
F18.828705813493677
aF8.797469665219465
aF-1.4191014775534108
aF0.05772087355879631
atp1109
bsg173
g174
sg175
I3
sbI96
tp1110
s(I5
I6
tp1111
(g10
(g161
g162
Ntp1112
Rp1113
(dp1114
g166
g59
(g60
(I0
tp1115
g62
tp1116
Rp1117
(I1
(I4
tp1118
g116
I00
(lp1119
F-25.6571356080973
aF-8.597787562742004
aF-0.5756709250666334
aF-0.011607549127749792
atp1120
bsg173
g174
sg175
I3
sbI5
tp1121
s(I75
I76
tp1122
(g10
(g161
g162
Ntp1123
Rp1124
(dp1125
g166
g59
(g60
(I0
tp1126
g62
tp1127
Rp1128
(I1
(I4
tp1129
g116
I00
(lp1130
F22.029027228730495
aF-13.106994280834877
aF-0.6558436820963683
aF0.4106174809812422
atp1131
bsg173
g174
sg175
I3
sbI75
tp1132
s(I64
I65
tp1133
(g10
(g161
g162
Ntp1134
Rp1135
(dp1136
g166
g59
(g60
(I0
tp1137
g62
tp1138
Rp1139
(I1
(I4
tp1140
g116
I00
(lp1141
F-26.336901204838142
aF-13.01630519899574
aF2.260829436824072
aF0.3286810449480549
atp1142
bsg173
g174
sg175
I3
sbI64
tp1143
s(I101
I102
tp1144
(g10
(g161
g162
Ntp1145
Rp1146
(dp1147
g166
g59
(g60
(I0
tp1148
g62
tp1149
Rp1150
(I1
(I4
tp1151
g116
I00
(lp1152
F-16.812875316299294
aF8.597787562813432
aF-0.5756709250830029
aF0.0116075491282932
atp1153
bsg173
g174
sg175
I3
sbI101
tp1154
s(I73
I74
tp1155
(g10
(g161
g162
Ntp1156
Rp1157
(dp1158
g166
g59
(g60
(I0
tp1159
g62
tp1160
Rp1161
(I1
(I4
tp1162
g116
I00
(lp1163
F13.825083234581621
aF-14.22158046369423
aF-0.14874740290896604
aF0.41813110363520434
atp1164
bsg173
g174
sg175
I3
sbI73
tp1165
s(I62
I63
tp1166
(g10
(g161
g162
Ntp1167
Rp1168
(dp1169
g166
g59
(g60
(I0
tp1170
g62
tp1171
Rp1172
(I1
(I4
tp1173
g116
I00
(lp1174
F-34.133676739031955
aF-11.443294760222841
aF2.714802114408919
aF0.2825204755757116
atp1175
bsg173
g174
sg175
I3
sbI62
tp1176
s(I46
I47
tp1177
(g10
(g161
g162
Ntp1178
Rp1179
(dp1180
g166
g59
(g60
(I0
tp1181
g62
tp1182
Rp1183
(I1
(I4
tp1184
g116
I00
(lp1185
F-37.815789573306596
aF9.444698473613254
aF3.1025638494380967
aF-0.22854174428331836
atp1186
bsg173
g174
sg175
I3
sbI46
tp1187
s(I44
I45
tp1188
(g10
(g161
g162
Ntp1189
Rp1190
(dp1191
g166
g59
(g60
(I0
tp1192
g62
tp1193
Rp1194
(I1
(I4
tp1195
g116
I00
(lp1196
F-30.291474591625953
aF11.443294760084786
aF2.7148021144432675
aF-0.2825204755610534
atp1197
bsg173
g174
sg175
I3
sbI44
tp1198
s(I3
I4
tp1199
(g10
(g161
g162
Ntp1200
Rp1201
(dp1202
g166
g59
(g60
(I0
tp1203
g62
tp1204
Rp1205
(I1
(I4
tp1206
g116
I00
(lp1207
F-45.19427964958293
aF-6.909771307140471
aF-0.28606224383798146
aF-0.0037250184289074227
atp1208
bsg173
g174
sg175
I3
sbI3
tp1209
s(I37
I38
tp1210
(g10
(g161
g162
Ntp1211
Rp1212
(dp1213
g166
g59
(g60
(I0
tp1214
g62
tp1215
Rp1216
(I1
(I4
tp1217
g116
I00
(lp1218
F-0.7764518650876021
aF14.950882901388429
aF0.944280506959357
aF-0.40356612029913586
atp1219
bsg173
g174
sg175
I3
sbI37
tp1220
s(I11
I12
tp1221
(g10
(g161
g162
Ntp1222
Rp1223
(dp1224
g166
g59
(g60
(I0
tp1225
g62
tp1226
Rp1227
(I1
(I4
tp1228
g116
I00
(lp1229
F18.828705813531688
aF-8.274450059175987
aF-1.577174808308476
aF-0.07159999644563307
atp1230
bsg173
g174
sg175
I3
sbI11
tp1231
s(I86
I87
tp1232
(g10
(g161
g162
Ntp1233
Rp1234
(dp1235
g166
g59
(g60
(I0
tp1236
g62
tp1237
Rp1238
(I1
(I4
tp1239
g116
I00
(lp1240
F46.77018399496326
aF-1.2987989727779201
aF-2.244854920345164
aF0.2421535628591337
atp1241
bsg173
g174
sg175
I3
sbI86
tp1242
s(I97
I98
tp1243
(g10
(g161
g162
Ntp1244
Rp1245
(dp1246
g166
g59
(g60
(I0
tp1247
g62
tp1248
Rp1249
(I1
(I4
tp1250
g116
I00
(lp1251
F12.81331241750228
aF9.153395010150083
aF-1.2528897675962858
aF0.04534545790988465
atp1252
bsg173
g174
sg175
I3
sbI97
tp1253
s(I41
I42
tp1254
(g10
(g161
g162
Ntp1255
Rp1256
(dp1257
g166
g59
(g60
(I0
tp1258
g62
tp1259
Rp1260
(I1
(I4
tp1261
g116
I00
(lp1262
F-18.199176657466296
aF13.635791336215412
aF2.0140507652415174
aF-0.34848100880609184
atp1263
bsg173
g174
sg175
I3
sbI41
tp1264
s(I102
I103
tp1265
(g10
(g161
g162
Ntp1266
Rp1267
(dp1268
g166
g59
(g60
(I0
tp1269
g62
tp1270
Rp1271
(I1
(I4
tp1272
g116
I00
(lp1273
F-25.657135608531046
aF7.885089351465347
aF-0.42305169439523566
aF0.006994017028104561
atp1274
bsg173
g174
sg175
I3
sbI102
tp1275
s(I77
I78
tp1276
(g10
(g161
g162
Ntp1277
Rp1278
(dp1279
g166
g59
(g60
(I0
tp1280
g62
tp1281
Rp1282
(I1
(I4
tp1283
g116
I00
(lp1284
F29.06228834376387
aF-11.586583755830853
aF-1.1140040258276738
aF0.3941431017397755
atp1285
bsg173
g174
sg175
I3
sbI77
tp1286
s(I15
I16
tp1287
(g10
(g161
g162
Ntp1288
Rp1289
(dp1290
g166
g59
(g60
(I0
tp1291
g62
tp1292
Rp1293
(I1
(I4
tp1294
g116
I00
(lp1295
F37.20762891939872
aF-4.8255136540827746
aF-2.073437397873119
aF-0.13999522812584914
atp1296
bsg173
g174
sg175
I3
sbI15
tp1297
s(I49
I50
tp1298
(g10
(g161
g162
Ntp1299
Rp1300
(dp1301
g166
g59
(g60
(I0
tp1302
g62
tp1303
Rp1304
(I1
(I4
tp1305
g116
I00
(lp1306
F-47.242713540130154
aF5.751267643543937
aF3.5277430797399076
aF-0.13597887648017404
atp1307
bsg173
g174
sg175
I3
sbI49
tp1308
s(I57
I58
tp1309
(g10
(g161
g162
Ntp1310
Rp1311
(dp1312
g166
g59
(g60
(I0
tp1313
g62
tp1314
Rp1315
(I1
(I4
tp1316
g116
I00
(lp1317
F-49.59496365422014
aF-5.7512676437639305
aF3.527743079722318
aF0.1359788764960644
atp1318
bsg173
g174
sg175
I3
sbI57
tp1319
s(I84
I85
tp1320
(g10
(g161
g162
Ntp1321
Rp1322
(dp1323
g166
g59
(g60
(I0
tp1324
g62
tp1325
Rp1326
(I1
(I4
tp1327
g116
I00
(lp1328
F45.437354604704794
aF-3.885461154832575
aF-2.1487419423040337
aF0.28298285835131626
atp1329
bsg173
g174
sg175
I3
sbI84
tp1330
s(I81
I82
tp1331
(g10
(g161
g162
Ntp1332
Rp1333
(dp1334
g166
g59
(g60
(I0
tp1335
g62
tp1336
Rp1337
(I1
(I4
tp1338
g116
I00
(lp1339
F40.22413715425435
aF-7.547786504853886
aF-1.8295514266817159
aF0.3387082255418261
atp1340
bsg173
g174
sg175
I3
sbI81
tp1341
s(I2
I3
tp1342
(g10
(g161
g162
Ntp1343
Rp1344
(dp1345
g166
g59
(g60
(I0
tp1346
g62
tp1347
Rp1348
(I1
(I4
tp1349
g116
I00
(lp1350
F-55.94707113293059
aF-5.654374650207613
aF-0.16972755904772138
aF-0.0016328187907324848
atp1351
bsg173
g174
sg175
I3
sbI2
tp1352
s(I50
I51
tp1353
(g10
(g161
g162
Ntp1354
Rp1355
(dp1356
g166
g59
(g60
(I0
tp1357
g62
tp1358
Rp1359
(I1
(I4
tp1360
g116
I00
(lp1361
F-49.59496365462922
aF4.3736297642486806
aF3.6214921298120615
aF-0.10286088028427022
atp1362
bsg173
g174
sg175
I3
sbI50
tp1363
s(I10
I11
tp1364
(g10
(g161
g162
Ntp1365
Rp1366
(dp1367
g166
g59
(g60
(I0
tp1368
g62
tp1369
Rp1370
(I1
(I4
tp1371
g116
I00
(lp1372
F12.813312417616018
aF-8.797469665107423
aF-1.4191014775280741
aF-0.05772087355730182
atp1373
bsg173
g174
sg175
I3
sbI10
tp1374
s(I59
I60
tp1375
(g10
(g161
g162
Ntp1376
Rp1377
(dp1378
g166
g59
(g60
(I0
tp1379
g62
tp1380
Rp1381
(I1
(I4
tp1382
g116
I00
(lp1383
F-44.444336181900525
aF-8.2981301360289
aF3.266849299500399
aF0.19903733716858057
atp1384
bsg173
g174
sg175
I3
sbI59
tp1385
s(I26
I27
tp1386
(g10
(g161
g162
Ntp1387
Rp1388
(dp1389
g166
g59
(g60
(I0
tp1390
g62
tp1391
Rp1392
(I1
(I4
tp1393
g116
I00
(lp1394
F40.224137154043525
aF8.665123648042552
aF-1.6794318881822936
aF-0.3549694842676342
atp1395
bsg173
g174
sg175
I3
sbI26
tp1396
s(I34
I35
tp1397
(g10
(g161
g162
Ntp1398
Rp1399
(dp1400
g166
g59
(g60
(I0
tp1401
g62
tp1402
Rp1403
(I1
(I4
tp1404
g116
I00
(lp1405
F13.825083234395942
aF14.60561055352609
aF0.11817103248242883
aF-0.4182781482935793
atp1406
bsg173
g174
sg175
I3
sbI34
tp1407
stp1408
Rp1409
sg201
g19
sg202
(lp1410
F0.0
aF0.0
asg204
(lp1411
F0.0
aF0.0
asg14
g174
sbsg28
(ilib.spline
CubicSpline
p1412
(dp1413
g101
F0.0
sg62
F1.0
sg107
Nsg108
F0.009259259259259259
sg109
g59
(g60
(I0
tp1414
g62
tp1415
Rp1416
(I1
(I108
I4
tp1417
g116
I00
(lp1418
F-39.92067844301857
aF-1.115227446160722
aF-0.010384695905492196
aF-3.223213504381079e-05
aF-33.56797156424948
aF-2.0476711007232073
aF-0.03967079356182485
aF-0.00025064684316064085
aF-27.77688483413729
aF-2.8192512350047987
aF-0.08473488926301011
aF-0.0008155739850925865
aF-22.23096344505909
aF-3.4367779973675514
aF-0.1426610858590504
aF-0.0018595093014103854
aF-16.9829726879459
aF-3.908527238699382
aF-0.21067317137818867
aF-0.003488575232245057
aF-12.022107247827188
aF-4.242474662250137
aF-0.28614541120179526
aF-0.005783889494538782
aF-7.348338228024323
aF-4.446595168584146
aF-0.3665997614872979
aF-0.008802941212716252
aF-2.959846439546042
aF-4.5288131252382025
aF-0.4497053938375049
aF-0.012580956935861287
aF1.144574660832071
aF-4.497019384659534
aF-0.5332779170772988
aF-0.017132259897637905
aF4.965677228462218
aF-4.359083906091139
aF-0.6152788734731383
aF-0.02245162340382375
aF8.50351964286053
aF-4.122875027122791
aF-0.6938155302621561
aF-0.028515620827366323
aF11.757378337154272
aF-3.7962811844240614
aF-0.7671410507394418
aF-0.035283975395370676
aF14.725745704654477
aF-3.387232692628104
aF-0.8336550681195545
aF-0.04270091342409311
aF17.406439336429724
aF-2.903720488838389
aF-0.8919046346146146
aF-0.050696524647939424
aF19.79681585459385
aF-2.3538089373218933
aF-0.9405854626346172
aF-0.0591881327735148
aF21.894071467329436
aF-1.7456402854516313
aF-0.9785433258084462
aF-0.068081678385475
aF23.695598209105498
aF-1.0874292240875898
aF-1.0047754508967721
aF-0.0772731149240246
aF25.199355544319996
aF-0.38744712563425665
aF-1.0184317133941967
aF-0.08664981678914702
aF26.40421252464699
aF0.34600322227260416
aF-1.018815453240138
aF-0.09609199689227674
aF27.310217247534908
aF1.1046203680374627
aF-1.0053837533298595
aF-0.10547412938076617
aF27.91875813743278
aF1.8801414274105954
aF-0.9777470700386738
aF-0.11466637200523432
aF28.232594604866836
aF2.664380166434674
aF-0.9356681663919583
aF-0.12353598184952085
aF28.255750879669492
aF3.449262135314382
aF-0.8790603673016892
aF-0.13194871800186456
aF27.993283524720773
aF4.226853344334404
aF-0.8079852239716078
aF-0.1397702252432564
aF27.450947488387442
aF4.989379663456277
aF-0.722649733158731
aF-0.14686739391651532
aF26.634795293776495
aF5.729235088283402
aF-0.6234033002722527
aF-0.1531096927027589
aF25.550747886517204
aF6.438978085131102
aF-0.5107346597776741
aF-0.15837047291042095
aF24.20417379706283
aF7.111316246160625
aF-0.38526897152497286
aF-0.1625282448969191
aF22.599506913931982
aF7.73908032710318
aF-0.24776529955030796
aF-0.16546792922346992
aF20.73992342467766
aF8.315189311122003
aF-0.09911465475192661
aF-0.16708208694777751
aF18.627092174267123
aF8.83260853818498
aF0.059661251260175074
aF-0.16727213498673488
aF16.26098469866129
aF9.284302557592238
aF0.22741042807292702
aF-0.16594955368122907
aF13.639840943232286
aF9.663187028237578
aF0.4028501464602402
aF-0.1630370945237345
aF10.75971424846132
aF9.962067979583725
aF0.5845654706067337
aF-0.1584699966302395
aF7.616931458342075
aF10.173649408982117
aF0.7710072982786396
aF-0.15219722005717337
aF4.1940199771373985
aF10.2901499639026
aF0.9604869221016463
aF-0.144182707785107
aF0.5631575922481319
aF10.305793230353938
aF1.1511900998262439
aF-0.1344066488025083
aF-2.932960725908068
aF10.224322099078714
aF1.3412837602839536
aF-0.12286625382927185
aF-6.222126920947512
aF10.051485240163505
aF1.529022717128789
aF-0.1095753282528452
aF-9.32229172115931
aF9.792532692353523
aF1.7127636239113542
aF-0.09456335798757293
aF-12.238005294552888
aF9.452588100838167
aF1.8909591868112772
aF-0.07787459862449499
aF-14.974284612270713
aF9.036635750497313
aF2.0621557039532723
aF-0.05956719726192561
aF-17.53390975257838
aF8.54958270181458
aF2.2249910599931972
aF-0.039712336085551886
aF-19.91760797123033
aF7.9963158137248485
aF2.3781938240259697
aF-0.018393389336147727
aF-22.123815964452493
aF7.381765370267836
aF2.520583464618494
aF0.004294916447520871
aF-24.148626752331758
aF6.710970182703064
aF2.651071756775632
aF0.028247349673962058
aF-25.985860390156997
aF5.989140727420925
aF2.7686653763138174
aF0.05334903949701111
aF-27.627308449344152
aF5.221715492716921
aF2.8724696005743526
aF0.07947637085484248
aF-29.063169364217934
aF4.414405232599757
aF2.961692940623581
aF0.10649791826008151
aF-30.28267316311657
aF3.5732198669576296
aF3.0356524322861493
aF0.13427542577877707
aF-31.27486489659922
aF2.7044736198298738
aF3.093779223830478
aF0.16266483768476864
aF-32.02948542003069
aF1.8147656914956878
aF3.135624032268678
aF0.19151738059321147
aF-32.53786166993988
aF0.9109362006640246
aF3.1608620127516383
aF0.22068069375161098
aF-32.79370322685972
aF-8.207869661361093e-11
aF3.1692966072014706
aF0.2500000000082633
aF-32.793703226839575
aF-0.9109362008276224
aF3.160862012748603
aF0.2793193062649015
aF-32.53786166990261
aF-1.8147656916582504
aF3.1356240322626228
aF0.30848261942325866
aF-32.029485419954725
aF-2.704473619990326
aF3.093779223821432
aF0.3373351623316315
aF-31.274864896500944
aF-3.5732198671153523
aF3.0356524322741576
aF0.3657245742375257
aF-30.282673162996925
aF-4.414405232754156
aF2.961692940608699
aF0.3935020817560968
aF-29.063169364073296
aF-5.221715492867303
aF2.8724696005566486
aF0.4205236291611849
aF-27.627308449177246
aF-5.989140727566671
aF2.768665376293371
aF0.44665096051883957
aF-25.985860389982918
aF-6.710970182843974
aF2.6510717567525317
aF0.4717526503416869
aF-24.14862675214594
aF-7.381765370403583
aF2.520583464592832
aF0.49570508356790227
aF-22.123815964248273
aF-7.996315813854924
aF2.378193823997846
aF0.5183933893513218
aF-19.917607971021525
aF-8.549582701938855
aF2.2249910599627185
aF0.5397123361004545
aF-17.533909752357886
aF-9.036635750615464
aF2.0621557039205487
aF0.5595671972765356
aF-14.974284612040616
aF-9.452588100949924
aF1.8909591867764246
aF0.577874598638792
aF-12.238005294314785
aF-9.79253269245867
aF1.7127636238744934
aF0.5945633580015379
aF-9.322291720917425
aF-10.05148524026193
aF1.5290227170900434
aF0.6095753282664602
aF-6.222126920696531
aF-10.224322099170168
aF1.3412837602434498
aF0.6228662538425198
aF-2.9329607256476082
aF-10.305793230438157
aF1.1511900997841136
aF0.6344066488153736
aF0.5631575925117231
aF-10.290149963979498
aF0.9604869220580241
aF0.6441827077975751
aF4.194019977411829
aF-10.173649409051391
aF0.7710072982336641
aF0.6521972200692312
aF7.616931458636746
aF-9.962067979644814
aF0.5845654705605511
aF0.6584699966418752
aF10.7597142487499
aF-9.66318702829065
aF0.40285014641300043
aF0.6630370945349375
aF13.639840943537893
aF-9.28430255763682
aF0.22741042802478306
aF0.6659495536919905
aF16.260984698969743
aF-8.832608538220995
aF0.05966125121128549
aF0.667272134997047
aF18.62709217458333
aF-8.315189311149236
aF-0.09911465480140189
aF0.667082086957634
aF20.7399234249973
aF-7.739080327121533
aF-0.24776529960020524
aF0.6654679292328664
aF22.599506914254608
aF-7.111316246170016
aF-0.385268971575127
aF0.662528244905852
aF24.204173797387003
aF-6.438978085131488
aF-0.5107346598279188
aF0.6583704729188888
aF25.550747886846533
aF-5.72923508827464
aF-0.6234033003224199
aF0.6531096927107618
aF26.634795294094378
aF-4.989379663438685
aF-0.7226497332086546
aF0.646867393924055
aF27.45094748871533
aF-4.226853344307704
aF-0.8079852240211208
aF0.6397702252503356
aF27.99328352503311
aF-3.4492621352790063
aF-0.8790603673506275
aF0.6319487180084878
aF28.255750879988607
aF-2.664380166390434
aF-0.9356681664401592
aF0.6235359818556943
aF28.232594605159775
aF-1.880141427358218
aF-0.97774707008598
aF0.6146663720109654
aF27.918758137724176
aF-1.104620367976991
aF-1.005383753376121
aF0.6054741293860639
aF27.310217247803934
aF-0.34600322220465957
aF-1.0188154532852103
aF0.5960919968971515
aF26.404212524904914
aF0.3874471257093658
aF-1.0184317134379444
aF0.5866498167936105
aF25.199355544542367
aF1.0874292241688759
aF-1.0047754509390718
aF0.5772731149280895
aF23.69559820932202
aF1.7456402855389321
aF-0.9785433258491847
aF0.5680816783891554
aF21.894071467508766
aF2.3538089374141755
aF-0.9405854626736931
aF0.5591881327768258
aF19.796815854745894
aF2.9037204889348947
aF-0.8919046346519424
aF0.5506965246508966
aF17.40643933654587
aF3.3872326927278356
aF-0.8336550681550654
aF0.5427009134267129
aF14.725745704740097
aF3.7962811845261717
aF-0.767141050773084
aF0.5352839753976703
aF11.757378337202834
aF4.12287502722625
aF-0.6938155302938949
aF0.5285156208293632
aF8.503519642870298
aF4.359083906194869
aF-0.6152788735029582
aF0.5224516234055356
aF4.9656772284238055
aF4.497019384762198
aF-0.5332779171052078
aF0.5171322598990826
aF1.144574660763084
aF4.52881312533895
aF-0.4497053938635306
aF0.5125809569370563
aF-2.9598464396705064
aF4.446595168681436
aF-0.3665997615114903
aF0.5088029412136789
aF-7.348338228214276
aF4.2424746623421505
aF-0.2861454112242346
aF0.5057838894952855
aF-12.02210724791501
aF3.9085272387889556
aF-0.2106731713989468
aF0.5034885752327919
aF-16.982972688929166
aF3.4367779974298123
aF-0.14266108587840248
aF0.5018595093017719
aF-22.23096344144124
aF2.8192512351675556
aF-0.08473488928027853
aF0.5008155739852832
aF-27.776884856435483
aF2.04767110026657
aF-0.03967079358181472
aF0.5002506468431877
aF-33.567971442664245
aF1.115227449081452
aF-0.010384695902666139
aF0.5000322321349431
aF-39.9206786642988
aF0.006319708406471232
aF-2.4965244203475383e-16
aF0.5000000000000009
atp1419
bsg121
g59
(g60
(I0
tp1420
g62
tp1421
Rp1422
(I1
(I107
tp1423
g116
I00
(lp1424
F-39.92067844301857
aF-33.56797156424948
aF-27.77688483413729
aF-22.23096344505909
aF-16.9829726879459
aF-12.022107247827188
aF-7.348338228024323
aF-2.959846439546042
aF1.144574660832071
aF4.965677228462218
aF8.50351964286053
aF11.757378337154272
aF14.725745704654477
aF17.406439336429724
aF19.79681585459385
aF21.894071467329436
aF23.695598209105498
aF25.199355544319996
aF26.40421252464699
aF27.310217247534908
aF27.91875813743278
aF28.232594604866836
aF28.255750879669492
aF27.993283524720773
aF27.450947488387442
aF26.634795293776495
aF25.550747886517204
aF24.20417379706283
aF22.599506913931982
aF20.73992342467766
aF18.627092174267123
aF16.26098469866129
aF13.639840943232286
aF10.75971424846132
aF7.616931458342075
aF4.1940199771373985
aF0.5631575922481319
aF-2.932960725908068
aF-6.222126920947512
aF-9.32229172115931
aF-12.238005294552888
aF-14.974284612270713
aF-17.53390975257838
aF-19.91760797123033
aF-22.123815964452493
aF-24.148626752331758
aF-25.985860390156997
aF-27.627308449344152
aF-29.063169364217934
aF-30.28267316311657
aF-31.27486489659922
aF-32.02948542003069
aF-32.53786166993988
aF-32.79370322685972
aF-32.793703226839575
aF-32.53786166990261
aF-32.029485419954725
aF-31.274864896500944
aF-30.282673162996925
aF-29.063169364073296
aF-27.627308449177246
aF-25.985860389982918
aF-24.14862675214594
aF-22.123815964248273
aF-19.917607971021525
aF-17.533909752357886
aF-14.974284612040616
aF-12.238005294314785
aF-9.322291720917425
aF-6.222126920696531
aF-2.9329607256476082
aF0.5631575925117231
aF4.194019977411829
aF7.616931458636746
aF10.7597142487499
aF13.639840943537893
aF16.260984698969743
aF18.62709217458333
aF20.7399234249973
aF22.599506914254608
aF24.204173797387003
aF25.550747886846533
aF26.634795294094378
aF27.45094748871533
aF27.99328352503311
aF28.255750879988607
aF28.232594605159775
aF27.918758137724176
aF27.310217247803934
aF26.404212524904914
aF25.199355544542367
aF23.69559820932202
aF21.894071467508766
aF19.796815854745894
aF17.40643933654587
aF14.725745704740097
aF11.757378337202834
aF8.503519642870298
aF4.9656772284238055
aF1.144574660763084
aF-2.9598464396705064
aF-7.348338228214276
aF-12.02210724791501
aF-16.982972688929166
aF-22.23096344144124
aF-27.776884856435483
aF-33.567971442664245
atp1425
bsg156
I108
sg157
g10
(g158
g12
(dp1426
(I54
I55
tp1427
(g10
(g161
g162
Ntp1428
Rp1429
(dp1430
g166
g59
(g60
(I0
tp1431
g62
tp1432
Rp1433
(I1
(I4
tp1434
g116
I00
(lp1435
F-32.793703226839575
aF-0.9109362008276224
aF3.160862012748603
aF0.2793193062649015
atp1436
bsg173
g174
sg175
I3
sbI54
tp1437
s(I39
I40
tp1438
(g10
(g161
g162
Ntp1439
Rp1440
(dp1441
g166
g59
(g60
(I0
tp1442
g62
tp1443
Rp1444
(I1
(I4
tp1445
g116
I00
(lp1446
F-9.32229172115931
aF9.792532692353523
aF1.7127636239113542
aF-0.09456335798757293
atp1447
bsg173
g174
sg175
I3
sbI39
tp1448
s(I92
I93
tp1449
(g10
(g161
g162
Ntp1450
Rp1451
(dp1452
g166
g59
(g60
(I0
tp1453
g62
tp1454
Rp1455
(I1
(I4
tp1456
g116
I00
(lp1457
F21.894071467508766
aF2.3538089374141755
aF-0.9405854626736931
aF0.5591881327768258
atp1458
bsg173
g174
sg175
I3
sbI92
tp1459
s(I40
I41
tp1460
(g10
(g161
g162
Ntp1461
Rp1462
(dp1463
g166
g59
(g60
(I0
tp1464
g62
tp1465
Rp1466
(I1
(I4
tp1467
g116
I00
(lp1468
F-12.238005294552888
aF9.452588100838167
aF1.8909591868112772
aF-0.07787459862449499
atp1469
bsg173
g174
sg175
I3
sbI40
tp1470
s(I53
I54
tp1471
(g10
(g161
g162
Ntp1472
Rp1473
(dp1474
g166
g59
(g60
(I0
tp1475
g62
tp1476
Rp1477
(I1
(I4
tp1478
g116
I00
(lp1479
F-32.79370322685972
aF-8.207869661361093e-11
aF3.1692966072014706
aF0.2500000000082633
atp1480
bsg173
g174
sg175
I3
sbI53
tp1481
s(I104
I105
tp1482
(g10
(g161
g162
Ntp1483
Rp1484
(dp1485
g166
g59
(g60
(I0
tp1486
g62
tp1487
Rp1488
(I1
(I4
tp1489
g116
I00
(lp1490
F-22.23096344144124
aF2.8192512351675556
aF-0.08473488928027853
aF0.5008155739852832
atp1491
bsg173
g174
sg175
I3
sbI104
tp1492
s(I103
I104
tp1493
(g10
(g161
g162
Ntp1494
Rp1495
(dp1496
g166
g59
(g60
(I0
tp1497
g62
tp1498
Rp1499
(I1
(I4
tp1500
g116
I00
(lp1501
F-16.982972688929166
aF3.4367779974298123
aF-0.14266108587840248
aF0.5018595093017719
atp1502
bsg173
g174
sg175
I3
sbI103
tp1503
s(I94
I95
tp1504
(g10
(g161
g162
Ntp1505
Rp1506
(dp1507
g166
g59
(g60
(I0
tp1508
g62
tp1509
Rp1510
(I1
(I4
tp1511
g116
I00
(lp1512
F17.40643933654587
aF3.3872326927278356
aF-0.8336550681550654
aF0.5427009134267129
atp1513
bsg173
g174
sg175
I3
sbI94
tp1514
s(I74
I75
tp1515
(g10
(g161
g162
Ntp1516
Rp1517
(dp1518
g166
g59
(g60
(I0
tp1519
g62
tp1520
Rp1521
(I1
(I4
tp1522
g116
I00
(lp1523
F10.7597142487499
aF-9.66318702829065
aF0.40285014641300043
aF0.6630370945349375
atp1524
bsg173
g174
sg175
I3
sbI74
tp1525
s(I95
I96
tp1526
(g10
(g161
g162
Ntp1527
Rp1528
(dp1529
g166
g59
(g60
(I0
tp1530
g62
tp1531
Rp1532
(I1
(I4
tp1533
g116
I00
(lp1534
F14.725745704740097
aF3.7962811845261717
aF-0.767141050773084
aF0.5352839753976703
atp1535
bsg173
g174
sg175
I3
sbI95
tp1536
s(I19
I20
tp1537
(g10
(g161
g162
Ntp1538
Rp1539
(dp1540
g166
g59
(g60
(I0
tp1541
g62
tp1542
Rp1543
(I1
(I4
tp1544
g116
I00
(lp1545
F27.310217247534908
aF1.1046203680374627
aF-1.0053837533298595
aF-0.10547412938076617
atp1546
bsg173
g174
sg175
I3
sbI19
tp1547
s(I61
I62
tp1548
(g10
(g161
g162
Ntp1549
Rp1550
(dp1551
g166
g59
(g60
(I0
tp1552
g62
tp1553
Rp1554
(I1
(I4
tp1555
g116
I00
(lp1556
F-25.985860389982918
aF-6.710970182843974
aF2.6510717567525317
aF0.4717526503416869
atp1557
bsg173
g174
sg175
I3
sbI61
tp1558
s(I80
I81
tp1559
(g10
(g161
g162
Ntp1560
Rp1561
(dp1562
g166
g59
(g60
(I0
tp1563
g62
tp1564
Rp1565
(I1
(I4
tp1566
g116
I00
(lp1567
F24.204173797387003
aF-6.438978085131488
aF-0.5107346598279188
aF0.6583704729188888
atp1568
bsg173
g174
sg175
I3
sbI80
tp1569
s(I56
I57
tp1570
(g10
(g161
g162
Ntp1571
Rp1572
(dp1573
g166
g59
(g60
(I0
tp1574
g62
tp1575
Rp1576
(I1
(I4
tp1577
g116
I00
(lp1578
F-32.029485419954725
aF-2.704473619990326
aF3.093779223821432
aF0.3373351623316315
atp1579
bsg173
g174
sg175
I3
sbI56
tp1580
s(I6
I7
tp1581
(g10
(g161
g162
Ntp1582
Rp1583
(dp1584
g166
g59
(g60
(I0
tp1585
g62
tp1586
Rp1587
(I1
(I4
tp1588
g116
I00
(lp1589
F-7.348338228024323
aF-4.446595168584146
aF-0.3665997614872979
aF-0.008802941212716252
atp1590
bsg173
g174
sg175
I3
sbI6
tp1591
s(I76
I77
tp1592
(g10
(g161
g162
Ntp1593
Rp1594
(dp1595
g166
g59
(g60
(I0
tp1596
g62
tp1597
Rp1598
(I1
(I4
tp1599
g116
I00
(lp1600
F16.260984698969743
aF-8.832608538220995
aF0.05966125121128549
aF0.667272134997047
atp1601
bsg173
g174
sg175
I3
sbI76
tp1602
s(I55
I56
tp1603
(g10
(g161
g162
Ntp1604
Rp1605
(dp1606
g166
g59
(g60
(I0
tp1607
g62
tp1608
Rp1609
(I1
(I4
tp1610
g116
I00
(lp1611
F-32.53786166990261
aF-1.8147656916582504
aF3.1356240322626228
aF0.30848261942325866
atp1612
bsg173
g174
sg175
I3
sbI55
tp1613
s(I25
I26
tp1614
(g10
(g161
g162
Ntp1615
Rp1616
(dp1617
g166
g59
(g60
(I0
tp1618
g62
tp1619
Rp1620
(I1
(I4
tp1621
g116
I00
(lp1622
F26.634795293776495
aF5.729235088283402
aF-0.6234033002722527
aF-0.1531096927027589
atp1623
bsg173
g174
sg175
I3
sbI25
tp1624
s(I28
I29
tp1625
(g10
(g161
g162
Ntp1626
Rp1627
(dp1628
g166
g59
(g60
(I0
tp1629
g62
tp1630
Rp1631
(I1
(I4
tp1632
g116
I00
(lp1633
F22.599506913931982
aF7.73908032710318
aF-0.24776529955030796
aF-0.16546792922346992
atp1634
bsg173
g174
sg175
I3
sbI28
tp1635
s(I82
I83
tp1636
(g10
(g161
g162
Ntp1637
Rp1638
(dp1639
g166
g59
(g60
(I0
tp1640
g62
tp1641
Rp1642
(I1
(I4
tp1643
g116
I00
(lp1644
F26.634795294094378
aF-4.989379663438685
aF-0.7226497332086546
aF0.646867393924055
atp1645
bsg173
g174
sg175
I3
sbI82
tp1646
s(I4
I5
tp1647
(g10
(g161
g162
Ntp1648
Rp1649
(dp1650
g166
g59
(g60
(I0
tp1651
g62
tp1652
Rp1653
(I1
(I4
tp1654
g116
I00
(lp1655
F-16.9829726879459
aF-3.908527238699382
aF-0.21067317137818867
aF-0.003488575232245057
atp1656
bsg173
g174
sg175
I3
sbI4
tp1657
s(I91
I92
tp1658
(g10
(g161
g162
Ntp1659
Rp1660
(dp1661
g166
g59
(g60
(I0
tp1662
g62
tp1663
Rp1664
(I1
(I4
tp1665
g116
I00
(lp1666
F23.69559820932202
aF1.7456402855389321
aF-0.9785433258491847
aF0.5680816783891554
atp1667
bsg173
g174
sg175
I3
sbI91
tp1668
s(I27
I28
tp1669
(g10
(g161
g162
Ntp1670
Rp1671
(dp1672
g166
g59
(g60
(I0
tp1673
g62
tp1674
Rp1675
(I1
(I4
tp1676
g116
I00
(lp1677
F24.20417379706283
aF7.111316246160625
aF-0.38526897152497286
aF-0.1625282448969191
atp1678
bsg173
g174
sg175
I3
sbI27
tp1679
s(I36
I37
tp1680
(g10
(g161
g162
Ntp1681
Rp1682
(dp1683
g166
g59
(g60
(I0
tp1684
g62
tp1685
Rp1686
(I1
(I4
tp1687
g116
I00
(lp1688
F0.5631575922481319
aF10.305793230353938
aF1.1511900998262439
aF-0.1344066488025083
atp1689
bsg173
g174
sg175
I3
sbI36
tp1690
s(I17
I18
tp1691
(g10
(g161
g162
Ntp1692
Rp1693
(dp1694
g166
g59
(g60
(I0
tp1695
g62
tp1696
Rp1697
(I1
(I4
tp1698
g116
I00
(lp1699
F25.199355544319996
aF-0.38744712563425665
aF-1.0184317133941967
aF-0.08664981678914702
atp1700
bsg173
g174
sg175
I3
sbI17
tp1701
s(I93
I94
tp1702
(g10
(g161
g162
Ntp1703
Rp1704
(dp1705
g166
g59
(g60
(I0
tp1706
g62
tp1707
Rp1708
(I1
(I4
tp1709
g116
I00
(lp1710
F19.796815854745894
aF2.9037204889348947
aF-0.8919046346519424
aF0.5506965246508966
atp1711
bsg173
g174
sg175
I3
sbI93
tp1712
s(I1
I2
tp1713
(g10
(g161
g162
Ntp1714
Rp1715
(dp1716
g166
g59
(g60
(I0
tp1717
g62
tp1718
Rp1719
(I1
(I4
tp1720
g116
I00
(lp1721
F-33.56797156424948
aF-2.0476711007232073
aF-0.03967079356182485
aF-0.00025064684316064085
atp1722
bsg173
g174
sg175
I3
sbI1
tp1723
s(I9
I10
tp1724
(g10
(g161
g162
Ntp1725
Rp1726
(dp1727
g166
g59
(g60
(I0
tp1728
g62
tp1729
Rp1730
(I1
(I4
tp1731
g116
I00
(lp1732
F4.965677228462218
aF-4.359083906091139
aF-0.6152788734731383
aF-0.02245162340382375
atp1733
bsg173
g174
sg175
I3
sbI9
tp1734
s(I42
I43
tp1735
(g10
(g161
g162
Ntp1736
Rp1737
(dp1738
g166
g59
(g60
(I0
tp1739
g62
tp1740
Rp1741
(I1
(I4
tp1742
g116
I00
(lp1743
F-17.53390975257838
aF8.54958270181458
aF2.2249910599931972
aF-0.039712336085551886
atp1744
bsg173
g174
sg175
I3
sbI42
tp1745
s(I29
I30
tp1746
(g10
(g161
g162
Ntp1747
Rp1748
(dp1749
g166
g59
(g60
(I0
tp1750
g62
tp1751
Rp1752
(I1
(I4
tp1753
g116
I00
(lp1754
F20.73992342467766
aF8.315189311122003
aF-0.09911465475192661
aF-0.16708208694777751
atp1755
bsg173
g174
sg175
I3
sbI29
tp1756
s(I79
I80
tp1757
(g10
(g161
g162
Ntp1758
Rp1759
(dp1760
g166
g59
(g60
(I0
tp1761
g62
tp1762
Rp1763
(I1
(I4
tp1764
g116
I00
(lp1765
F22.599506914254608
aF-7.111316246170016
aF-0.385268971575127
aF0.662528244905852
atp1766
bsg173
g174
sg175
I3
sbI79
tp1767
s(I78
I79
tp1768
(g10
(g161
g162
Ntp1769
Rp1770
(dp1771
g166
g59
(g60
(I0
tp1772
g62
tp1773
Rp1774
(I1
(I4
tp1775
g116
I00
(lp1776
F20.7399234249973
aF-7.739080327121533
aF-0.24776529960020524
aF0.6654679292328664
atp1777
bsg173
g174
sg175
I3
sbI78
tp1778
s(I105
I106
tp1779
(g10
(g161
g162
Ntp1780
Rp1781
(dp1782
g166
g59
(g60
(I0
tp1783
g62
tp1784
Rp1785
(I1
(I4
tp1786
g116
I00
(lp1787
F-27.776884856435483
aF2.04767110026657
aF-0.03967079358181472
aF0.5002506468431877
atp1788
bsg173
g174
sg175
I3
sbI105
tp1789
s(I106
I107
tp1790
(g10
(g161
g162
Ntp1791
Rp1792
(dp1793
g166
g59
(g60
(I0
tp1794
g62
tp1795
Rp1796
(I1
(I4
tp1797
g116
I00
(lp1798
F-33.567971442664245
aF1.115227449081452
aF-0.010384695902666139
aF0.5000322321349431
atp1799
bsg173
g174
sg175
I3
sbI106
tp1800
s(I14
I15
tp1801
(g10
(g161
g162
Ntp1802
Rp1803
(dp1804
g166
g59
(g60
(I0
tp1805
g62
tp1806
Rp1807
(I1
(I4
tp1808
g116
I00
(lp1809
F19.79681585459385
aF-2.3538089373218933
aF-0.9405854626346172
aF-0.0591881327735148
atp1810
bsg173
g174
sg175
I3
sbI14
tp1811
s(I88
I89
tp1812
(g10
(g161
g162
Ntp1813
Rp1814
(dp1815
g166
g59
(g60
(I0
tp1816
g62
tp1817
Rp1818
(I1
(I4
tp1819
g116
I00
(lp1820
F27.310217247803934
aF-0.34600322220465957
aF-1.0188154532852103
aF0.5960919968971515
atp1821
bsg173
g174
sg175
I3
sbI88
tp1822
s(I38
I39
tp1823
(g10
(g161
g162
Ntp1824
Rp1825
(dp1826
g166
g59
(g60
(I0
tp1827
g62
tp1828
Rp1829
(I1
(I4
tp1830
g116
I00
(lp1831
F-6.222126920947512
aF10.051485240163505
aF1.529022717128789
aF-0.1095753282528452
atp1832
bsg173
g174
sg175
I3
sbI38
tp1833
s(I51
I52
tp1834
(g10
(g161
g162
Ntp1835
Rp1836
(dp1837
g166
g59
(g60
(I0
tp1838
g62
tp1839
Rp1840
(I1
(I4
tp1841
g116
I00
(lp1842
F-32.02948542003069
aF1.8147656914956878
aF3.135624032268678
aF0.19151738059321147
atp1843
bsg173
g174
sg175
I3
sbI51
tp1844
s(I85
I86
tp1845
(g10
(g161
g162
Ntp1846
Rp1847
(dp1848
g166
g59
(g60
(I0
tp1849
g62
tp1850
Rp1851
(I1
(I4
tp1852
g116
I00
(lp1853
F28.255750879988607
aF-2.664380166390434
aF-0.9356681664401592
aF0.6235359818556943
atp1854
bsg173
g174
sg175
I3
sbI85
tp1855
s(I16
I17
tp1856
(g10
(g161
g162
Ntp1857
Rp1858
(dp1859
g166
g59
(g60
(I0
tp1860
g62
tp1861
Rp1862
(I1
(I4
tp1863
g116
I00
(lp1864
F23.695598209105498
aF-1.0874292240875898
aF-1.0047754508967721
aF-0.0772731149240246
atp1865
bsg173
g174
sg175
I3
sbI16
tp1866
s(I33
I34
tp1867
(g10
(g161
g162
Ntp1868
Rp1869
(dp1870
g166
g59
(g60
(I0
tp1871
g62
tp1872
Rp1873
(I1
(I4
tp1874
g116
I00
(lp1875
F10.75971424846132
aF9.962067979583725
aF0.5845654706067337
aF-0.1584699966302395
atp1876
bsg173
g174
sg175
I3
sbI33
tp1877
s(I72
I73
tp1878
(g10
(g161
g162
Ntp1879
Rp1880
(dp1881
g166
g59
(g60
(I0
tp1882
g62
tp1883
Rp1884
(I1
(I4
tp1885
g116
I00
(lp1886
F4.194019977411829
aF-10.173649409051391
aF0.7710072982336641
aF0.6521972200692312
atp1887
bsg173
g174
sg175
I3
sbI72
tp1888
s(I48
I49
tp1889
(g10
(g161
g162
Ntp1890
Rp1891
(dp1892
g166
g59
(g60
(I0
tp1893
g62
tp1894
Rp1895
(I1
(I4
tp1896
g116
I00
(lp1897
F-29.063169364217934
aF4.414405232599757
aF2.961692940623581
aF0.10649791826008151
atp1898
bsg173
g174
sg175
I3
sbI48
tp1899
s(I45
I46
tp1900
(g10
(g161
g162
Ntp1901
Rp1902
(dp1903
g166
g59
(g60
(I0
tp1904
g62
tp1905
Rp1906
(I1
(I4
tp1907
g116
I00
(lp1908
F-24.148626752331758
aF6.710970182703064
aF2.651071756775632
aF0.028247349673962058
atp1909
bsg173
g174
sg175
I3
sbI45
tp1910
s(I35
I36
tp1911
(g10
(g161
g162
Ntp1912
Rp1913
(dp1914
g166
g59
(g60
(I0
tp1915
g62
tp1916
Rp1917
(I1
(I4
tp1918
g116
I00
(lp1919
F4.1940199771373985
aF10.2901499639026
aF0.9604869221016463
aF-0.144182707785107
atp1920
bsg173
g174
sg175
I3
sbI35
tp1921
s(I20
I21
tp1922
(g10
(g161
g162
Ntp1923
Rp1924
(dp1925
g166
g59
(g60
(I0
tp1926
g62
tp1927
Rp1928
(I1
(I4
tp1929
g116
I00
(lp1930
F27.91875813743278
aF1.8801414274105954
aF-0.9777470700386738
aF-0.11466637200523432
atp1931
bsg173
g174
sg175
I3
sbI20
tp1932
s(I13
I14
tp1933
(g10
(g161
g162
Ntp1934
Rp1935
(dp1936
g166
g59
(g60
(I0
tp1937
g62
tp1938
Rp1939
(I1
(I4
tp1940
g116
I00
(lp1941
F17.406439336429724
aF-2.903720488838389
aF-0.8919046346146146
aF-0.050696524647939424
atp1942
bsg173
g174
sg175
I3
sbI13
tp1943
s(I83
I84
tp1944
(g10
(g161
g162
Ntp1945
Rp1946
(dp1947
g166
g59
(g60
(I0
tp1948
g62
tp1949
Rp1950
(I1
(I4
tp1951
g116
I00
(lp1952
F27.45094748871533
aF-4.226853344307704
aF-0.8079852240211208
aF0.6397702252503356
atp1953
bsg173
g174
sg175
I3
sbI83
tp1954
s(I67
I68
tp1955
(g10
(g161
g162
Ntp1956
Rp1957
(dp1958
g166
g59
(g60
(I0
tp1959
g62
tp1960
Rp1961
(I1
(I4
tp1962
g116
I00
(lp1963
F-12.238005294314785
aF-9.79253269245867
aF1.7127636238744934
aF0.5945633580015379
atp1964
bsg173
g174
sg175
I3
sbI67
tp1965
s(I30
I31
tp1966
(g10
(g161
g162
Ntp1967
Rp1968
(dp1969
g166
g59
(g60
(I0
tp1970
g62
tp1971
Rp1972
(I1
(I4
tp1973
g116
I00
(lp1974
F18.627092174267123
aF8.83260853818498
aF0.059661251260175074
aF-0.16727213498673488
atp1975
bsg173
g174
sg175
I3
sbI30
tp1976
s(I43
I44
tp1977
(g10
(g161
g162
Ntp1978
Rp1979
(dp1980
g166
g59
(g60
(I0
tp1981
g62
tp1982
Rp1983
(I1
(I4
tp1984
g116
I00
(lp1985
F-19.91760797123033
aF7.9963158137248485
aF2.3781938240259697
aF-0.018393389336147727
atp1986
bsg173
g174
sg175
I3
sbI43
tp1987
s(I18
I19
tp1988
(g10
(g161
g162
Ntp1989
Rp1990
(dp1991
g166
g59
(g60
(I0
tp1992
g62
tp1993
Rp1994
(I1
(I4
tp1995
g116
I00
(lp1996
F26.40421252464699
aF0.34600322227260416
aF-1.018815453240138
aF-0.09609199689227674
atp1997
bsg173
g174
sg175
I3
sbI18
tp1998
s(I7
I8
tp1999
(g10
(g161
g162
Ntp2000
Rp2001
(dp2002
g166
g59
(g60
(I0
tp2003
g62
tp2004
Rp2005
(I1
(I4
tp2006
g116
I00
(lp2007
F-2.959846439546042
aF-4.5288131252382025
aF-0.4497053938375049
aF-0.012580956935861287
atp2008
bsg173
g174
sg175
I3
sbI7
tp2009
s(I22
I23
tp2010
(g10
(g161
g162
Ntp2011
Rp2012
(dp2013
g166
g59
(g60
(I0
tp2014
g62
tp2015
Rp2016
(I1
(I4
tp2017
g116
I00
(lp2018
F28.255750879669492
aF3.449262135314382
aF-0.8790603673016892
aF-0.13194871800186456
atp2019
bsg173
g174
sg175
I3
sbI22
tp2020
s(I23
I24
tp2021
(g10
(g161
g162
Ntp2022
Rp2023
(dp2024
g166
g59
(g60
(I0
tp2025
g62
tp2026
Rp2027
(I1
(I4
tp2028
g116
I00
(lp2029
F27.993283524720773
aF4.226853344334404
aF-0.8079852239716078
aF-0.1397702252432564
atp2030
bsg173
g174
sg175
I3
sbI23
tp2031
s(I52
I53
tp2032
(g10
(g161
g162
Ntp2033
Rp2034
(dp2035
g166
g59
(g60
(I0
tp2036
g62
tp2037
Rp2038
(I1
(I4
tp2039
g116
I00
(lp2040
F-32.53786166993988
aF0.9109362006640246
aF3.1608620127516383
aF0.22068069375161098
atp2041
bsg173
g174
sg175
I3
sbI52
tp2042
s(I69
I70
tp2043
(g10
(g161
g162
Ntp2044
Rp2045
(dp2046
g166
g59
(g60
(I0
tp2047
g62
tp2048
Rp2049
(I1
(I4
tp2050
g116
I00
(lp2051
F-6.222126920696531
aF-10.224322099170168
aF1.3412837602434498
aF0.6228662538425198
atp2052
bsg173
g174
sg175
I3
sbI69
tp2053
s(I107
I108
tp2054
(g10
(g161
g162
Ntp2055
Rp2056
(dp2057
g166
g59
(g60
(I0
tp2058
g62
tp2059
Rp2060
(I1
(I4
tp2061
g116
I00
(lp2062
F-39.9206786642988
aF0.006319708406471232
aF-2.4965244203475383e-16
aF0.5000000000000009
atp2063
bsg173
g174
sg175
I3
sbI107
tp2064
s(I8
I9
tp2065
(g10
(g161
g162
Ntp2066
Rp2067
(dp2068
g166
g59
(g60
(I0
tp2069
g62
tp2070
Rp2071
(I1
(I4
tp2072
g116
I00
(lp2073
F1.144574660832071
aF-4.497019384659534
aF-0.5332779170772988
aF-0.017132259897637905
atp2074
bsg173
g174
sg175
I3
sbI8
tp2075
s(I60
I61
tp2076
(g10
(g161
g162
Ntp2077
Rp2078
(dp2079
g166
g59
(g60
(I0
tp2080
g62
tp2081
Rp2082
(I1
(I4
tp2083
g116
I00
(lp2084
F-27.627308449177246
aF-5.989140727566671
aF2.768665376293371
aF0.44665096051883957
atp2085
bsg173
g174
sg175
I3
sbI60
tp2086
s(I90
I91
tp2087
(g10
(g161
g162
Ntp2088
Rp2089
(dp2090
g166
g59
(g60
(I0
tp2091
g62
tp2092
Rp2093
(I1
(I4
tp2094
g116
I00
(lp2095
F25.199355544542367
aF1.0874292241688759
aF-1.0047754509390718
aF0.5772731149280895
atp2096
bsg173
g174
sg175
I3
sbI90
tp2097
s(I98
I99
tp2098
(g10
(g161
g162
Ntp2099
Rp2100
(dp2101
g166
g59
(g60
(I0
tp2102
g62
tp2103
Rp2104
(I1
(I4
tp2105
g116
I00
(lp2106
F4.9656772284238055
aF4.497019384762198
aF-0.5332779171052078
aF0.5171322598990826
atp2107
bsg173
g174
sg175
I3
sbI98
tp2108
s(I71
I72
tp2109
(g10
(g161
g162
Ntp2110
Rp2111
(dp2112
g166
g59
(g60
(I0
tp2113
g62
tp2114
Rp2115
(I1
(I4
tp2116
g116
I00
(lp2117
F0.5631575925117231
aF-10.290149963979498
aF0.9604869220580241
aF0.6441827077975751
atp2118
bsg173
g174
sg175
I3
sbI71
tp2119
s(I70
I71
tp2120
(g10
(g161
g162
Ntp2121
Rp2122
(dp2123
g166
g59
(g60
(I0
tp2124
g62
tp2125
Rp2126
(I1
(I4
tp2127
g116
I00
(lp2128
F-2.9329607256476082
aF-10.305793230438157
aF1.1511900997841136
aF0.6344066488153736
atp2129
bsg173
g174
sg175
I3
sbI70
tp2130
s(I87
I88
tp2131
(g10
(g161
g162
Ntp2132
Rp2133
(dp2134
g166
g59
(g60
(I0
tp2135
g62
tp2136
Rp2137
(I1
(I4
tp2138
g116
I00
(lp2139
F27.918758137724176
aF-1.104620367976991
aF-1.005383753376121
aF0.6054741293860639
atp2140
bsg173
g174
sg175
I3
sbI87
tp2141
s(I65
I66
tp2142
(g10
(g161
g162
Ntp2143
Rp2144
(dp2145
g166
g59
(g60
(I0
tp2146
g62
tp2147
Rp2148
(I1
(I4
tp2149
g116
I00
(lp2150
F-17.533909752357886
aF-9.036635750615464
aF2.0621557039205487
aF0.5595671972765356
atp2151
bsg173
g174
sg175
I3
sbI65
tp2152
s(I24
I25
tp2153
(g10
(g161
g162
Ntp2154
Rp2155
(dp2156
g166
g59
(g60
(I0
tp2157
g62
tp2158
Rp2159
(I1
(I4
tp2160
g116
I00
(lp2161
F27.450947488387442
aF4.989379663456277
aF-0.722649733158731
aF-0.14686739391651532
atp2162
bsg173
g174
sg175
I3
sbI24
tp2163
s(I58
I59
tp2164
(g10
(g161
g162
Ntp2165
Rp2166
(dp2167
g166
g59
(g60
(I0
tp2168
g62
tp2169
Rp2170
(I1
(I4
tp2171
g116
I00
(lp2172
F-30.282673162996925
aF-4.414405232754156
aF2.961692940608699
aF0.3935020817560968
atp2173
bsg173
g174
sg175
I3
sbI58
tp2174
s(I12
I13
tp2175
(g10
(g161
g162
Ntp2176
Rp2177
(dp2178
g166
g59
(g60
(I0
tp2179
g62
tp2180
Rp2181
(I1
(I4
tp2182
g116
I00
(lp2183
F14.725745704654477
aF-3.387232692628104
aF-0.8336550681195545
aF-0.04270091342409311
atp2184
bsg173
g174
sg175
I3
sbI12
tp2185
s(I31
I32
tp2186
(g10
(g161
g162
Ntp2187
Rp2188
(dp2189
g166
g59
(g60
(I0
tp2190
g62
tp2191
Rp2192
(I1
(I4
tp2193
g116
I00
(lp2194
F16.26098469866129
aF9.284302557592238
aF0.22741042807292702
aF-0.16594955368122907
atp2195
bsg173
g174
sg175
I3
sbI31
tp2196
s(I89
I90
tp2197
(g10
(g161
g162
Ntp2198
Rp2199
(dp2200
g166
g59
(g60
(I0
tp2201
g62
tp2202
Rp2203
(I1
(I4
tp2204
g116
I00
(lp2205
F26.404212524904914
aF0.3874471257093658
aF-1.0184317134379444
aF0.5866498167936105
atp2206
bsg173
g174
sg175
I3
sbI89
tp2207
s(I68
I69
tp2208
(g10
(g161
g162
Ntp2209
Rp2210
(dp2211
g166
g59
(g60
(I0
tp2212
g62
tp2213
Rp2214
(I1
(I4
tp2215
g116
I00
(lp2216
F-9.322291720917425
aF-10.05148524026193
aF1.5290227170900434
aF0.6095753282664602
atp2217
bsg173
g174
sg175
I3
sbI68
tp2218
s(I66
I67
tp2219
(g10
(g161
g162
Ntp2220
Rp2221
(dp2222
g166
g59
(g60
(I0
tp2223
g62
tp2224
Rp2225
(I1
(I4
tp2226
g116
I00
(lp2227
F-14.974284612040616
aF-9.452588100949924
aF1.8909591867764246
aF0.577874598638792
atp2228
bsg173
g174
sg175
I3
sbI66
tp2229
s(I47
I48
tp2230
(g10
(g161
g162
Ntp2231
Rp2232
(dp2233
g166
g59
(g60
(I0
tp2234
g62
tp2235
Rp2236
(I1
(I4
tp2237
g116
I00
(lp2238
F-27.627308449344152
aF5.221715492716921
aF2.8724696005743526
aF0.07947637085484248
atp2239
bsg173
g174
sg175
I3
sbI47
tp2240
s(I0
I1
tp2241
(g10
(g161
g162
Ntp2242
Rp2243
(dp2244
g166
g59
(g60
(I0
tp2245
g62
tp2246
Rp2247
(I1
(I4
tp2248
g116
I00
(lp2249
F-39.92067844301857
aF-1.115227446160722
aF-0.010384695905492196
aF-3.223213504381079e-05
atp2250
bsg173
g174
sg175
I3
sbI0
tp2251
s(I63
I64
tp2252
(g10
(g161
g162
Ntp2253
Rp2254
(dp2255
g166
g59
(g60
(I0
tp2256
g62
tp2257
Rp2258
(I1
(I4
tp2259
g116
I00
(lp2260
F-22.123815964248273
aF-7.996315813854924
aF2.378193823997846
aF0.5183933893513218
atp2261
bsg173
g174
sg175
I3
sbI63
tp2262
s(I21
I22
tp2263
(g10
(g161
g162
Ntp2264
Rp2265
(dp2266
g166
g59
(g60
(I0
tp2267
g62
tp2268
Rp2269
(I1
(I4
tp2270
g116
I00
(lp2271
F28.232594604866836
aF2.664380166434674
aF-0.9356681663919583
aF-0.12353598184952085
atp2272
bsg173
g174
sg175
I3
sbI21
tp2273
s(I99
I100
tp2274
(g10
(g161
g162
Ntp2275
Rp2276
(dp2277
g166
g59
(g60
(I0
tp2278
g62
tp2279
Rp2280
(I1
(I4
tp2281
g116
I00
(lp2282
F1.144574660763084
aF4.52881312533895
aF-0.4497053938635306
aF0.5125809569370563
atp2283
bsg173
g174
sg175
I3
sbI99
tp2284
s(I100
I101
tp2285
(g10
(g161
g162
Ntp2286
Rp2287
(dp2288
g166
g59
(g60
(I0
tp2289
g62
tp2290
Rp2291
(I1
(I4
tp2292
g116
I00
(lp2293
F-2.9598464396705064
aF4.446595168681436
aF-0.3665997615114903
aF0.5088029412136789
atp2294
bsg173
g174
sg175
I3
sbI100
tp2295
s(I32
I33
tp2296
(g10
(g161
g162
Ntp2297
Rp2298
(dp2299
g166
g59
(g60
(I0
tp2300
g62
tp2301
Rp2302
(I1
(I4
tp2303
g116
I00
(lp2304
F13.639840943232286
aF9.663187028237578
aF0.4028501464602402
aF-0.1630370945237345
atp2305
bsg173
g174
sg175
I3
sbI32
tp2306
s(I96
I97
tp2307
(g10
(g161
g162
Ntp2308
Rp2309
(dp2310
g166
g59
(g60
(I0
tp2311
g62
tp2312
Rp2313
(I1
(I4
tp2314
g116
I00
(lp2315
F11.757378337202834
aF4.12287502722625
aF-0.6938155302938949
aF0.5285156208293632
atp2316
bsg173
g174
sg175
I3
sbI96
tp2317
s(I5
I6
tp2318
(g10
(g161
g162
Ntp2319
Rp2320
(dp2321
g166
g59
(g60
(I0
tp2322
g62
tp2323
Rp2324
(I1
(I4
tp2325
g116
I00
(lp2326
F-12.022107247827188
aF-4.242474662250137
aF-0.28614541120179526
aF-0.005783889494538782
atp2327
bsg173
g174
sg175
I3
sbI5
tp2328
s(I75
I76
tp2329
(g10
(g161
g162
Ntp2330
Rp2331
(dp2332
g166
g59
(g60
(I0
tp2333
g62
tp2334
Rp2335
(I1
(I4
tp2336
g116
I00
(lp2337
F13.639840943537893
aF-9.28430255763682
aF0.22741042802478306
aF0.6659495536919905
atp2338
bsg173
g174
sg175
I3
sbI75
tp2339
s(I64
I65
tp2340
(g10
(g161
g162
Ntp2341
Rp2342
(dp2343
g166
g59
(g60
(I0
tp2344
g62
tp2345
Rp2346
(I1
(I4
tp2347
g116
I00
(lp2348
F-19.917607971021525
aF-8.549582701938855
aF2.2249910599627185
aF0.5397123361004545
atp2349
bsg173
g174
sg175
I3
sbI64
tp2350
s(I101
I102
tp2351
(g10
(g161
g162
Ntp2352
Rp2353
(dp2354
g166
g59
(g60
(I0
tp2355
g62
tp2356
Rp2357
(I1
(I4
tp2358
g116
I00
(lp2359
F-7.348338228214276
aF4.2424746623421505
aF-0.2861454112242346
aF0.5057838894952855
atp2360
bsg173
g174
sg175
I3
sbI101
tp2361
s(I73
I74
tp2362
(g10
(g161
g162
Ntp2363
Rp2364
(dp2365
g166
g59
(g60
(I0
tp2366
g62
tp2367
Rp2368
(I1
(I4
tp2369
g116
I00
(lp2370
F7.616931458636746
aF-9.962067979644814
aF0.5845654705605511
aF0.6584699966418752
atp2371
bsg173
g174
sg175
I3
sbI73
tp2372
s(I62
I63
tp2373
(g10
(g161
g162
Ntp2374
Rp2375
(dp2376
g166
g59
(g60
(I0
tp2377
g62
tp2378
Rp2379
(I1
(I4
tp2380
g116
I00
(lp2381
F-24.14862675214594
aF-7.381765370403583
aF2.520583464592832
aF0.49570508356790227
atp2382
bsg173
g174
sg175
I3
sbI62
tp2383
s(I46
I47
tp2384
(g10
(g161
g162
Ntp2385
Rp2386
(dp2387
g166
g59
(g60
(I0
tp2388
g62
tp2389
Rp2390
(I1
(I4
tp2391
g116
I00
(lp2392
F-25.985860390156997
aF5.989140727420925
aF2.7686653763138174
aF0.05334903949701111
atp2393
bsg173
g174
sg175
I3
sbI46
tp2394
s(I44
I45
tp2395
(g10
(g161
g162
Ntp2396
Rp2397
(dp2398
g166
g59
(g60
(I0
tp2399
g62
tp2400
Rp2401
(I1
(I4
tp2402
g116
I00
(lp2403
F-22.123815964452493
aF7.381765370267836
aF2.520583464618494
aF0.004294916447520871
atp2404
bsg173
g174
sg175
I3
sbI44
tp2405
s(I3
I4
tp2406
(g10
(g161
g162
Ntp2407
Rp2408
(dp2409
g166
g59
(g60
(I0
tp2410
g62
tp2411
Rp2412
(I1
(I4
tp2413
g116
I00
(lp2414
F-22.23096344505909
aF-3.4367779973675514
aF-0.1426610858590504
aF-0.0018595093014103854
atp2415
bsg173
g174
sg175
I3
sbI3
tp2416
s(I37
I38
tp2417
(g10
(g161
g162
Ntp2418
Rp2419
(dp2420
g166
g59
(g60
(I0
tp2421
g62
tp2422
Rp2423
(I1
(I4
tp2424
g116
I00
(lp2425
F-2.932960725908068
aF10.224322099078714
aF1.3412837602839536
aF-0.12286625382927185
atp2426
bsg173
g174
sg175
I3
sbI37
tp2427
s(I11
I12
tp2428
(g10
(g161
g162
Ntp2429
Rp2430
(dp2431
g166
g59
(g60
(I0
tp2432
g62
tp2433
Rp2434
(I1
(I4
tp2435
g116
I00
(lp2436
F11.757378337154272
aF-3.7962811844240614
aF-0.7671410507394418
aF-0.035283975395370676
atp2437
bsg173
g174
sg175
I3
sbI11
tp2438
s(I86
I87
tp2439
(g10
(g161
g162
Ntp2440
Rp2441
(dp2442
g166
g59
(g60
(I0
tp2443
g62
tp2444
Rp2445
(I1
(I4
tp2446
g116
I00
(lp2447
F28.232594605159775
aF-1.880141427358218
aF-0.97774707008598
aF0.6146663720109654
atp2448
bsg173
g174
sg175
I3
sbI86
tp2449
s(I97
I98
tp2450
(g10
(g161
g162
Ntp2451
Rp2452
(dp2453
g166
g59
(g60
(I0
tp2454
g62
tp2455
Rp2456
(I1
(I4
tp2457
g116
I00
(lp2458
F8.503519642870298
aF4.359083906194869
aF-0.6152788735029582
aF0.5224516234055356
atp2459
bsg173
g174
sg175
I3
sbI97
tp2460
s(I41
I42
tp2461
(g10
(g161
g162
Ntp2462
Rp2463
(dp2464
g166
g59
(g60
(I0
tp2465
g62
tp2466
Rp2467
(I1
(I4
tp2468
g116
I00
(lp2469
F-14.974284612270713
aF9.036635750497313
aF2.0621557039532723
aF-0.05956719726192561
atp2470
bsg173
g174
sg175
I3
sbI41
tp2471
s(I102
I103
tp2472
(g10
(g161
g162
Ntp2473
Rp2474
(dp2475
g166
g59
(g60
(I0
tp2476
g62
tp2477
Rp2478
(I1
(I4
tp2479
g116
I00
(lp2480
F-12.02210724791501
aF3.9085272387889556
aF-0.2106731713989468
aF0.5034885752327919
atp2481
bsg173
g174
sg175
I3
sbI102
tp2482
s(I77
I78
tp2483
(g10
(g161
g162
Ntp2484
Rp2485
(dp2486
g166
g59
(g60
(I0
tp2487
g62
tp2488
Rp2489
(I1
(I4
tp2490
g116
I00
(lp2491
F18.62709217458333
aF-8.315189311149236
aF-0.09911465480140189
aF0.667082086957634
atp2492
bsg173
g174
sg175
I3
sbI77
tp2493
s(I15
I16
tp2494
(g10
(g161
g162
Ntp2495
Rp2496
(dp2497
g166
g59
(g60
(I0
tp2498
g62
tp2499
Rp2500
(I1
(I4
tp2501
g116
I00
(lp2502
F21.894071467329436
aF-1.7456402854516313
aF-0.9785433258084462
aF-0.068081678385475
atp2503
bsg173
g174
sg175
I3
sbI15
tp2504
s(I49
I50
tp2505
(g10
(g161
g162
Ntp2506
Rp2507
(dp2508
g166
g59
(g60
(I0
tp2509
g62
tp2510
Rp2511
(I1
(I4
tp2512
g116
I00
(lp2513
F-30.28267316311657
aF3.5732198669576296
aF3.0356524322861493
aF0.13427542577877707
atp2514
bsg173
g174
sg175
I3
sbI49
tp2515
s(I57
I58
tp2516
(g10
(g161
g162
Ntp2517
Rp2518
(dp2519
g166
g59
(g60
(I0
tp2520
g62
tp2521
Rp2522
(I1
(I4
tp2523
g116
I00
(lp2524
F-31.274864896500944
aF-3.5732198671153523
aF3.0356524322741576
aF0.3657245742375257
atp2525
bsg173
g174
sg175
I3
sbI57
tp2526
s(I84
I85
tp2527
(g10
(g161
g162
Ntp2528
Rp2529
(dp2530
g166
g59
(g60
(I0
tp2531
g62
tp2532
Rp2533
(I1
(I4
tp2534
g116
I00
(lp2535
F27.99328352503311
aF-3.4492621352790063
aF-0.8790603673506275
aF0.6319487180084878
atp2536
bsg173
g174
sg175
I3
sbI84
tp2537
s(I81
I82
tp2538
(g10
(g161
g162
Ntp2539
Rp2540
(dp2541
g166
g59
(g60
(I0
tp2542
g62
tp2543
Rp2544
(I1
(I4
tp2545
g116
I00
(lp2546
F25.550747886846533
aF-5.72923508827464
aF-0.6234033003224199
aF0.6531096927107618
atp2547
bsg173
g174
sg175
I3
sbI81
tp2548
s(I2
I3
tp2549
(g10
(g161
g162
Ntp2550
Rp2551
(dp2552
g166
g59
(g60
(I0
tp2553
g62
tp2554
Rp2555
(I1
(I4
tp2556
g116
I00
(lp2557
F-27.77688483413729
aF-2.8192512350047987
aF-0.08473488926301011
aF-0.0008155739850925865
atp2558
bsg173
g174
sg175
I3
sbI2
tp2559
s(I50
I51
tp2560
(g10
(g161
g162
Ntp2561
Rp2562
(dp2563
g166
g59
(g60
(I0
tp2564
g62
tp2565
Rp2566
(I1
(I4
tp2567
g116
I00
(lp2568
F-31.27486489659922
aF2.7044736198298738
aF3.093779223830478
aF0.16266483768476864
atp2569
bsg173
g174
sg175
I3
sbI50
tp2570
s(I10
I11
tp2571
(g10
(g161
g162
Ntp2572
Rp2573
(dp2574
g166
g59
(g60
(I0
tp2575
g62
tp2576
Rp2577
(I1
(I4
tp2578
g116
I00
(lp2579
F8.50351964286053
aF-4.122875027122791
aF-0.6938155302621561
aF-0.028515620827366323
atp2580
bsg173
g174
sg175
I3
sbI10
tp2581
s(I59
I60
tp2582
(g10
(g161
g162
Ntp2583
Rp2584
(dp2585
g166
g59
(g60
(I0
tp2586
g62
tp2587
Rp2588
(I1
(I4
tp2589
g116
I00
(lp2590
F-29.063169364073296
aF-5.221715492867303
aF2.8724696005566486
aF0.4205236291611849
atp2591
bsg173
g174
sg175
I3
sbI59
tp2592
s(I26
I27
tp2593
(g10
(g161
g162
Ntp2594
Rp2595
(dp2596
g166
g59
(g60
(I0
tp2597
g62
tp2598
Rp2599
(I1
(I4
tp2600
g116
I00
(lp2601
F25.550747886517204
aF6.438978085131102
aF-0.5107346597776741
aF-0.15837047291042095
atp2602
bsg173
g174
sg175
I3
sbI26
tp2603
s(I34
I35
tp2604
(g10
(g161
g162
Ntp2605
Rp2606
(dp2607
g166
g59
(g60
(I0
tp2608
g62
tp2609
Rp2610
(I1
(I4
tp2611
g116
I00
(lp2612
F7.616931458342075
aF10.173649408982117
aF0.7710072982786396
aF-0.15219722005717337
atp2613
bsg173
g174
sg175
I3
sbI34
tp2614
stp2615
Rp2616
sg201
g26
sg202
(lp2617
F0.0
aF0.5
asg204
(lp2618
F0.0
aF0.0
asg14
g174
sbssS'solver'
p2619
S'leven_algopy'
p2620
sS'm'
p2621
I1
sS'epsilon_tol'
p2622
F0.01
sg156
I4
sS'l2'
p2623
(lp2624
I1
aI3
asS'find_integ'
p2625
I01
sS'gamma'
p2626
g203
s.